
minikernel/kernel:     formato del fichero elf32-i386

Desensamblado de la sección .hash:

000000f4 <.hash>:
  f4:	43                   	inc    %ebx
  f5:	00 00                	add    %al,(%eax)
  f7:	00 5f 00             	add    %bl,0x0(%edi)
  fa:	00 00                	add    %al,(%eax)
  fc:	3e 00 00             	add    %al,%ds:(%eax)
  ff:	00 54 00 00          	add    %dl,0x0(%eax,%eax,1)
	...
 10b:	00 0d 00 00 00 00    	add    %cl,0x0
 111:	00 00                	add    %al,(%eax)
 113:	00 15 00 00 00 32    	add    %dl,0x32000000
 119:	00 00                	add    %al,(%eax)
 11b:	00 4d 00             	add    %cl,0x0(%ebp)
 11e:	00 00                	add    %al,(%eax)
 120:	40                   	inc    %eax
 121:	00 00                	add    %al,(%eax)
 123:	00 4a 00             	add    %cl,0x0(%edx)
 126:	00 00                	add    %al,(%eax)
 128:	39 00                	cmp    %eax,(%eax)
 12a:	00 00                	add    %al,(%eax)
 12c:	36 00 00             	add    %al,%ss:(%eax)
 12f:	00 00                	add    %al,(%eax)
 131:	00 00                	add    %al,(%eax)
 133:	00 5a 00             	add    %bl,0x0(%edx)
 136:	00 00                	add    %al,(%eax)
 138:	2f                   	das    
 139:	00 00                	add    %al,(%eax)
 13b:	00 56 00             	add    %dl,0x0(%esi)
 13e:	00 00                	add    %al,(%eax)
 140:	00 00                	add    %al,(%eax)
 142:	00 00                	add    %al,(%eax)
 144:	16                   	push   %ss
	...
 14d:	00 00                	add    %al,(%eax)
 14f:	00 51 00             	add    %dl,0x0(%ecx)
 152:	00 00                	add    %al,(%eax)
 154:	28 00                	sub    %al,(%eax)
 156:	00 00                	add    %al,(%eax)
 158:	42                   	inc    %edx
 159:	00 00                	add    %al,(%eax)
 15b:	00 1c 00             	add    %bl,(%eax,%eax,1)
 15e:	00 00                	add    %al,(%eax)
 160:	31 00                	xor    %eax,(%eax)
 162:	00 00                	add    %al,(%eax)
 164:	29 00                	sub    %eax,(%eax)
 166:	00 00                	add    %al,(%eax)
 168:	0e                   	push   %cs
 169:	00 00                	add    %al,(%eax)
 16b:	00 00                	add    %al,(%eax)
 16d:	00 00                	add    %al,(%eax)
 16f:	00 4c 00 00          	add    %cl,0x0(%eax,%eax,1)
 173:	00 53 00             	add    %dl,0x0(%ebx)
 176:	00 00                	add    %al,(%eax)
 178:	00 00                	add    %al,(%eax)
 17a:	00 00                	add    %al,(%eax)
 17c:	4b                   	dec    %ebx
 17d:	00 00                	add    %al,(%eax)
 17f:	00 24 00             	add    %ah,(%eax,%eax,1)
 182:	00 00                	add    %al,(%eax)
 184:	58                   	pop    %eax
 185:	00 00                	add    %al,(%eax)
 187:	00 5c 00 00          	add    %bl,0x0(%eax,%eax,1)
 18b:	00 5d 00             	add    %bl,0x0(%ebp)
 18e:	00 00                	add    %al,(%eax)
 190:	47                   	inc    %edi
 191:	00 00                	add    %al,(%eax)
 193:	00 00                	add    %al,(%eax)
 195:	00 00                	add    %al,(%eax)
 197:	00 4f 00             	add    %cl,0x0(%edi)
 19a:	00 00                	add    %al,(%eax)
 19c:	00 00                	add    %al,(%eax)
 19e:	00 00                	add    %al,(%eax)
 1a0:	25 00 00 00 59       	and    $0x59000000,%eax
 1a5:	00 00                	add    %al,(%eax)
 1a7:	00 57 00             	add    %dl,0x0(%edi)
 1aa:	00 00                	add    %al,(%eax)
 1ac:	00 00                	add    %al,(%eax)
 1ae:	00 00                	add    %al,(%eax)
 1b0:	34 00                	xor    $0x0,%al
 1b2:	00 00                	add    %al,(%eax)
 1b4:	0c 00                	or     $0x0,%al
	...
 1be:	00 00                	add    %al,(%eax)
 1c0:	3b 00                	cmp    (%eax),%eax
 1c2:	00 00                	add    %al,(%eax)
 1c4:	55                   	push   %ebp
 1c5:	00 00                	add    %al,(%eax)
 1c7:	00 3a                	add    %bh,(%edx)
 1c9:	00 00                	add    %al,(%eax)
 1cb:	00 00                	add    %al,(%eax)
 1cd:	00 00                	add    %al,(%eax)
 1cf:	00 52 00             	add    %dl,0x0(%edx)
	...
 1da:	00 00                	add    %al,(%eax)
 1dc:	30 00                	xor    %al,(%eax)
 1de:	00 00                	add    %al,(%eax)
 1e0:	5e                   	pop    %esi
 1e1:	00 00                	add    %al,(%eax)
 1e3:	00 33                	add    %dh,(%ebx)
 1e5:	00 00                	add    %al,(%eax)
 1e7:	00 5b 00             	add    %bl,0x0(%ebx)
 1ea:	00 00                	add    %al,(%eax)
 1ec:	00 00                	add    %al,(%eax)
 1ee:	00 00                	add    %al,(%eax)
 1f0:	43                   	inc    %ebx
 1f1:	00 00                	add    %al,(%eax)
 1f3:	00 2c 00             	add    %ch,(%eax,%eax,1)
 1f6:	00 00                	add    %al,(%eax)
 1f8:	00 00                	add    %al,(%eax)
 1fa:	00 00                	add    %al,(%eax)
 1fc:	21 00                	and    %eax,(%eax)
 1fe:	00 00                	add    %al,(%eax)
 200:	50                   	push   %eax
 201:	00 00                	add    %al,(%eax)
 203:	00 45 00             	add    %al,0x0(%ebp)
	...
 25a:	00 00                	add    %al,(%eax)
 25c:	0f 00 00             	sldtl  (%eax)
	...
 26f:	00 13                	add    %dl,(%ebx)
	...
 281:	00 00                	add    %al,(%eax)
 283:	00 14 00             	add    %dl,(%eax,%eax,1)
	...
 29e:	00 00                	add    %al,(%eax)
 2a0:	19 00                	sbb    %eax,(%eax)
	...
 2ae:	00 00                	add    %al,(%eax)
 2b0:	27                   	daa    
 2b1:	00 00                	add    %al,(%eax)
 2b3:	00 00                	add    %al,(%eax)
 2b5:	00 00                	add    %al,(%eax)
 2b7:	00 10                	add    %dl,(%eax)
 2b9:	00 00                	add    %al,(%eax)
 2bb:	00 00                	add    %al,(%eax)
 2bd:	00 00                	add    %al,(%eax)
 2bf:	00 1d 00 00 00 2b    	add    %bl,0x2b000000
 2c5:	00 00                	add    %al,(%eax)
 2c7:	00 00                	add    %al,(%eax)
 2c9:	00 00                	add    %al,(%eax)
 2cb:	00 17                	add    %dl,(%edi)
 2cd:	00 00                	add    %al,(%eax)
 2cf:	00 22                	add    %ah,(%edx)
	...
 2d9:	00 00                	add    %al,(%eax)
 2db:	00 2a                	add    %ch,(%edx)
 2dd:	00 00                	add    %al,(%eax)
 2df:	00 18                	add    %bl,(%eax)
 2e1:	00 00                	add    %al,(%eax)
 2e3:	00 26                	add    %ah,(%esi)
	...
 305:	00 00                	add    %al,(%eax)
 307:	00 37                	add    %dh,(%edi)
 309:	00 00                	add    %al,(%eax)
 30b:	00 00                	add    %al,(%eax)
 30d:	00 00                	add    %al,(%eax)
 30f:	00 20                	add    %ah,(%eax)
 311:	00 00                	add    %al,(%eax)
 313:	00 3f                	add    %bh,(%edi)
 315:	00 00                	add    %al,(%eax)
 317:	00 00                	add    %al,(%eax)
 319:	00 00                	add    %al,(%eax)
 31b:	00 3c 00             	add    %bh,(%eax,%eax,1)
 31e:	00 00                	add    %al,(%eax)
 320:	1e                   	push   %ds
 321:	00 00                	add    %al,(%eax)
 323:	00 1a                	add    %bl,(%edx)
 325:	00 00                	add    %al,(%eax)
 327:	00 00                	add    %al,(%eax)
 329:	00 00                	add    %al,(%eax)
 32b:	00 12                	add    %dl,(%edx)
 32d:	00 00                	add    %al,(%eax)
 32f:	00 00                	add    %al,(%eax)
 331:	00 00                	add    %al,(%eax)
 333:	00 1b                	add    %bl,(%ebx)
 335:	00 00                	add    %al,(%eax)
 337:	00 00                	add    %al,(%eax)
 339:	00 00                	add    %al,(%eax)
 33b:	00 49 00             	add    %cl,0x0(%ecx)
 33e:	00 00                	add    %al,(%eax)
 340:	41                   	inc    %ecx
 341:	00 00                	add    %al,(%eax)
 343:	00 00                	add    %al,(%eax)
 345:	00 00                	add    %al,(%eax)
 347:	00 3d 00 00 00 35    	add    %bh,0x35000000
 34d:	00 00                	add    %al,(%eax)
 34f:	00 23                	add    %ah,(%ebx)
 351:	00 00                	add    %al,(%eax)
 353:	00 00                	add    %al,(%eax)
 355:	00 00                	add    %al,(%eax)
 357:	00 11                	add    %dl,(%ecx)
 359:	00 00                	add    %al,(%eax)
 35b:	00 4e 00             	add    %cl,0x0(%esi)
 35e:	00 00                	add    %al,(%eax)
 360:	2e 00 00             	add    %al,%cs:(%eax)
 363:	00 46 00             	add    %al,0x0(%esi)
	...
 36e:	00 00                	add    %al,(%eax)
 370:	2d 00 00 00 48       	sub    $0x48000000,%eax
 375:	00 00                	add    %al,(%eax)
 377:	00 1f                	add    %bl,(%edi)
 379:	00 00                	add    %al,(%eax)
 37b:	00 44 00 00          	add    %al,0x0(%eax,%eax,1)
 37f:	00 38                	add    %bh,(%eax)
 381:	00 00                	add    %al,(%eax)
	...
Desensamblado de la sección .dynsym:

00000384 <.dynsym>:
	...
 398:	c4 1a                	les    (%edx),%ebx
 39a:	00 00                	add    %al,(%eax)
 39c:	00 00                	add    %al,(%eax)
 39e:	00 00                	add    %al,(%eax)
 3a0:	03 00                	add    (%eax),%eax
 3a2:	08 00                	or     %al,(%eax)
 3a4:	00 00                	add    %al,(%eax)
 3a6:	00 00                	add    %al,(%eax)
 3a8:	10 1b                	adc    %bl,(%ebx)
 3aa:	00 00                	add    %al,(%eax)
 3ac:	00 00                	add    %al,(%eax)
 3ae:	00 00                	add    %al,(%eax)
 3b0:	03 00                	add    (%eax),%eax
 3b2:	0a 00                	or     (%eax),%al
 3b4:	00 00                	add    %al,(%eax)
 3b6:	00 00                	add    %al,(%eax)
 3b8:	d0 3d 00 00 00 00    	sarb   0x0
 3be:	00 00                	add    %al,(%eax)
 3c0:	03 00                	add    (%eax),%eax
 3c2:	0b 00                	or     (%eax),%eax
 3c4:	00 00                	add    %al,(%eax)
 3c6:	00 00                	add    %al,(%eax)
 3c8:	00 3e                	add    %bh,(%esi)
 3ca:	00 00                	add    %al,(%eax)
 3cc:	00 00                	add    %al,(%eax)
 3ce:	00 00                	add    %al,(%eax)
 3d0:	03 00                	add    (%eax),%eax
 3d2:	0c 00                	or     $0x0,%al
 3d4:	00 00                	add    %al,(%eax)
 3d6:	00 00                	add    %al,(%eax)
 3d8:	80 42 00 00          	addb   $0x0,0x0(%edx)
 3dc:	00 00                	add    %al,(%eax)
 3de:	00 00                	add    %al,(%eax)
 3e0:	03 00                	add    (%eax),%eax
 3e2:	0d 00 00 00 00       	or     $0x0,%eax
 3e7:	00 94 42 00 00 00 00 	add    %dl,0x0(%edx,%eax,2)
 3ee:	00 00                	add    %al,(%eax)
 3f0:	03 00                	add    (%eax),%eax
 3f2:	0e                   	push   %cs
 3f3:	00 00                	add    %al,(%eax)
 3f5:	00 00                	add    %al,(%eax)
 3f7:	00 d0                	add    %dl,%al
 3f9:	52                   	push   %edx
 3fa:	00 00                	add    %al,(%eax)
 3fc:	00 00                	add    %al,(%eax)
 3fe:	00 00                	add    %al,(%eax)
 400:	03 00                	add    (%eax),%eax
 402:	0f 00 00             	sldtl  (%eax)
 405:	00 00                	add    %al,(%eax)
 407:	00 d8                	add    %bl,%al
 409:	52                   	push   %edx
 40a:	00 00                	add    %al,(%eax)
 40c:	00 00                	add    %al,(%eax)
 40e:	00 00                	add    %al,(%eax)
 410:	03 00                	add    (%eax),%eax
 412:	10 00                	adc    %al,(%eax)
 414:	00 00                	add    %al,(%eax)
 416:	00 00                	add    %al,(%eax)
 418:	e0 52                	loopne 46c <_init-0x1658>
 41a:	00 00                	add    %al,(%eax)
 41c:	00 00                	add    %al,(%eax)
 41e:	00 00                	add    %al,(%eax)
 420:	03 00                	add    (%eax),%eax
 422:	11 00                	adc    %eax,(%eax)
 424:	00 00                	add    %al,(%eax)
 426:	00 00                	add    %al,(%eax)
 428:	e0 53                	loopne 47d <_init-0x1647>
 42a:	00 00                	add    %al,(%eax)
 42c:	00 00                	add    %al,(%eax)
 42e:	00 00                	add    %al,(%eax)
 430:	03 00                	add    (%eax),%eax
 432:	15 00 00 00 00       	adc    $0x0,%eax
 437:	00 40 54             	add    %al,0x54(%eax)
 43a:	00 00                	add    %al,(%eax)
 43c:	00 00                	add    %al,(%eax)
 43e:	00 00                	add    %al,(%eax)
 440:	03 00                	add    (%eax),%eax
 442:	16                   	push   %ss
 443:	00 87 00 00 00 5c    	add    %al,0x5c000000(%edi)
 449:	54                   	push   %esp
 44a:	00 00                	add    %al,(%eax)
 44c:	04 00                	add    $0x0,%al
 44e:	00 00                	add    %al,(%eax)
 450:	11 00                	adc    %eax,(%eax)
 452:	16                   	push   %ss
 453:	00 19                	add    %bl,(%ecx)
 455:	03 00                	add    (%eax),%eax
 457:	00 00                	add    %al,(%eax)
 459:	00 00                	add    %al,(%eax)
 45b:	00 7e 00             	add    %bh,0x0(%esi)
 45e:	00 00                	add    %al,(%eax)
 460:	12 00                	adc    (%eax),%al
 462:	00 00                	add    %al,(%eax)
 464:	78 01                	js     467 <_init-0x165d>
 466:	00 00                	add    %al,(%eax)
 468:	60                   	pusha  
 469:	32 00                	xor    (%eax),%al
 46b:	00 64 00 00          	add    %ah,0x0(%eax,%eax,1)
 46f:	00 12                	add    %dl,(%edx)
 471:	00 0a                	add    %cl,(%edx)
 473:	00 46 02             	add    %al,0x2(%esi)
 476:	00 00                	add    %al,(%eax)
 478:	70 2d                	jo     4a7 <_init-0x161d>
 47a:	00 00                	add    %al,(%eax)
 47c:	3f                   	aas    
 47d:	00 00                	add    %al,(%eax)
 47f:	00 12                	add    %dl,(%edx)
 481:	00 0a                	add    %cl,(%edx)
 483:	00 cd                	add    %cl,%ch
 485:	02 00                	add    (%eax),%al
 487:	00 00                	add    %al,(%eax)
 489:	00 00                	add    %al,(%eax)
 48b:	00 a9 00 00 00 12    	add    %ch,0x12000000(%ecx)
 491:	00 00                	add    %al,(%eax)
 493:	00 77 03             	add    %dh,0x3(%edi)
 496:	00 00                	add    %al,(%eax)
 498:	00 00                	add    %al,(%eax)
 49a:	00 00                	add    %al,(%eax)
 49c:	4d                   	dec    %ebp
 49d:	00 00                	add    %al,(%eax)
 49f:	00 12                	add    %dl,(%edx)
 4a1:	00 00                	add    %al,(%eax)
 4a3:	00 0b                	add    %cl,(%ebx)
 4a5:	01 00                	add    %eax,(%eax)
 4a7:	00 4b 24             	add    %cl,0x24(%ebx)
 4aa:	00 00                	add    %al,(%eax)
 4ac:	0d 01 00 00 12       	or     $0x12000001,%eax
 4b1:	00 0a                	add    %cl,(%edx)
 4b3:	00 8e 02 00 00 00    	add    %cl,0x2(%esi)
 4b9:	00 00                	add    %al,(%eax)
 4bb:	00 c1                	add    %al,%cl
 4bd:	00 00                	add    %al,(%eax)
 4bf:	00 12                	add    %dl,(%edx)
 4c1:	00 00                	add    %al,(%eax)
 4c3:	00 5d 03             	add    %bl,0x3(%ebp)
 4c6:	00 00                	add    %al,(%eax)
 4c8:	00 00                	add    %al,(%eax)
 4ca:	00 00                	add    %al,(%eax)
 4cc:	56                   	push   %esi
 4cd:	00 00                	add    %al,(%eax)
 4cf:	00 12                	add    %dl,(%edx)
 4d1:	00 00                	add    %al,(%eax)
 4d3:	00 42 03             	add    %al,0x3(%edx)
 4d6:	00 00                	add    %al,(%eax)
 4d8:	d0                   	(bad)  
 4d9:	32 00                	xor    (%eax),%al
 4db:	00 1f                	add    %bl,(%edi)
 4dd:	00 00                	add    %al,(%eax)
 4df:	00 12                	add    %dl,(%edx)
 4e1:	00 0a                	add    %cl,(%edx)
 4e3:	00 72 00             	add    %dh,0x0(%edx)
 4e6:	00 00                	add    %al,(%eax)
 4e8:	58                   	pop    %eax
 4e9:	54                   	push   %esp
 4ea:	00 00                	add    %al,(%eax)
 4ec:	04 00                	add    $0x0,%al
 4ee:	00 00                	add    %al,(%eax)
 4f0:	11 00                	adc    %eax,(%eax)
 4f2:	16                   	push   %ss
 4f3:	00 d9                	add    %bl,%cl
 4f5:	02 00                	add    (%eax),%al
 4f7:	00 00                	add    %al,(%eax)
 4f9:	00 00                	add    %al,(%eax)
 4fb:	00 6b 00             	add    %ch,0x0(%ebx)
 4fe:	00 00                	add    %al,(%eax)
 500:	12 00                	adc    (%eax),%al
 502:	00 00                	add    %al,(%eax)
 504:	86 03                	xchg   %al,(%ebx)
 506:	00 00                	add    %al,(%eax)
 508:	c0 39 00             	sarb   $0x0,(%ecx)
 50b:	00 5e 00             	add    %bl,0x0(%esi)
 50e:	00 00                	add    %al,(%eax)
 510:	12 00                	adc    (%eax),%al
 512:	0a 00                	or     (%eax),%al
 514:	51                   	push   %ecx
 515:	03 00                	add    (%eax),%eax
 517:	00 00                	add    %al,(%eax)
 519:	00 00                	add    %al,(%eax)
 51b:	00 3c 00             	add    %bh,(%eax,%eax,1)
 51e:	00 00                	add    %al,(%eax)
 520:	12 00                	adc    (%eax),%al
 522:	00 00                	add    %al,(%eax)
 524:	01 00                	add    %eax,(%eax)
 526:	00 00                	add    %al,(%eax)
 528:	e4 52                	in     $0x52,%al
 52a:	00 00                	add    %al,(%eax)
 52c:	00 00                	add    %al,(%eax)
 52e:	00 00                	add    %al,(%eax)
 530:	11 00                	adc    %eax,(%eax)
 532:	f1                   	icebp  
 533:	ff 9e 02 00 00 00    	lcall  *0x2(%esi)
 539:	00 00                	add    %al,(%eax)
 53b:	00 7a 00             	add    %bh,0x0(%edx)
 53e:	00 00                	add    %al,(%eax)
 540:	12 00                	adc    (%eax),%al
 542:	00 00                	add    %al,(%eax)
 544:	f4                   	hlt    
 545:	02 00                	add    (%eax),%al
 547:	00 00                	add    %al,(%eax)
 549:	00 00                	add    %al,(%eax)
 54b:	00 8e 00 00 00 12    	add    %cl,0x12000000(%esi)
 551:	00 00                	add    %al,(%eax)
 553:	00 55 02             	add    %dl,0x2(%ebp)
 556:	00 00                	add    %al,(%eax)
 558:	10 37                	adc    %dh,(%edi)
 55a:	00 00                	add    %al,(%eax)
 55c:	78 02                	js     560 <_init-0x1564>
 55e:	00 00                	add    %al,(%eax)
 560:	12 00                	adc    (%eax),%al
 562:	0a 00                	or     (%eax),%al
 564:	69 03 00 00 00 00    	imul   $0x0,(%ebx),%eax
 56a:	00 00                	add    %al,(%eax)
 56c:	b9 00 00 00 12       	mov    $0x12000000,%ecx
 571:	00 00                	add    %al,(%eax)
 573:	00 96 00 00 00 00    	add    %dl,0x0(%esi)
 579:	54                   	push   %esp
 57a:	00 00                	add    %al,(%eax)
 57c:	2c 00                	sub    $0x0,%al
 57e:	00 00                	add    %al,(%eax)
 580:	11 00                	adc    %eax,(%eax)
 582:	15 00 db 01 00       	adc    $0x1db00,%eax
 587:	00 30                	add    %dh,(%eax)
 589:	3c 00                	cmp    $0x0,%al
 58b:	00 3b                	add    %bh,(%ebx)
 58d:	00 00                	add    %al,(%eax)
 58f:	00 12                	add    %dl,(%edx)
 591:	00 0a                	add    %cl,(%edx)
 593:	00 79 02             	add    %bh,0x2(%ecx)
 596:	00 00                	add    %al,(%eax)
 598:	c0 3a 00             	sarb   $0x0,(%edx)
 59b:	00 24 01             	add    %ah,(%ecx,%eax,1)
 59e:	00 00                	add    %al,(%eax)
 5a0:	12 00                	adc    (%eax),%al
 5a2:	0a 00                	or     (%eax),%al
 5a4:	da 00                	fiaddl (%eax)
 5a6:	00 00                	add    %al,(%eax)
 5a8:	a2 22 00 00 28       	mov    %al,0x28000022
 5ad:	00 00                	add    %al,(%eax)
 5af:	00 12                	add    %dl,(%edx)
 5b1:	00 0a                	add    %cl,(%edx)
 5b3:	00 05 02 00 00 70    	add    %al,0x70000002
 5b9:	31 00                	xor    %eax,(%eax)
 5bb:	00 e5                	add    %ah,%ch
 5bd:	00 00                	add    %al,(%eax)
 5bf:	00 12                	add    %dl,(%edx)
 5c1:	00 0a                	add    %cl,(%edx)
 5c3:	00 70 03             	add    %dh,0x3(%eax)
 5c6:	00 00                	add    %al,(%eax)
 5c8:	00 00                	add    %al,(%eax)
 5ca:	00 00                	add    %al,(%eax)
 5cc:	92                   	xchg   %eax,%edx
 5cd:	00 00                	add    %al,(%eax)
 5cf:	00 12                	add    %dl,(%edx)
 5d1:	00 00                	add    %al,(%eax)
 5d3:	00 1b                	add    %bl,(%ebx)
 5d5:	01 00                	add    %eax,(%eax)
 5d7:	00 58 25             	add    %bl,0x25(%eax)
 5da:	00 00                	add    %al,(%eax)
 5dc:	93                   	xchg   %eax,%ebx
 5dd:	00 00                	add    %al,(%eax)
 5df:	00 12                	add    %dl,(%edx)
 5e1:	00 0a                	add    %cl,(%edx)
 5e3:	00 ae 02 00 00 00    	add    %ch,0x2(%esi)
 5e9:	00 00                	add    %al,(%eax)
 5eb:	00 d4                	add    %dl,%ah
 5ed:	00 00                	add    %al,(%eax)
 5ef:	00 12                	add    %dl,(%edx)
 5f1:	00 00                	add    %al,(%eax)
 5f3:	00 cd                	add    %cl,%ch
 5f5:	00 00                	add    %al,(%eax)
 5f7:	00 3c 22             	add    %bh,(%edx)
 5fa:	00 00                	add    %al,(%eax)
 5fc:	3d 00 00 00 12       	cmp    $0x12000000,%eax
 601:	00 0a                	add    %cl,(%edx)
 603:	00 ec                	add    %ch,%ah
 605:	00 00                	add    %al,(%eax)
 607:	00 ca                	add    %cl,%dl
 609:	22 00                	and    (%eax),%al
 60b:	00 e6                	add    %ah,%dh
 60d:	00 00                	add    %al,(%eax)
 60f:	00 12                	add    %dl,(%edx)
 611:	00 0a                	add    %cl,(%edx)
 613:	00 19                	add    %bl,(%ecx)
 615:	00 00                	add    %al,(%eax)
 617:	00 c4                	add    %al,%ah
 619:	1a 00                	sbb    (%eax),%al
 61b:	00 00                	add    %al,(%eax)
 61d:	00 00                	add    %al,(%eax)
 61f:	00 12                	add    %dl,(%edx)
 621:	00 08                	add    %cl,(%eax)
 623:	00 2b                	add    %ch,(%ebx)
 625:	01 00                	add    %eax,(%eax)
 627:	00 eb                	add    %ch,%bl
 629:	25 00 00 4c 03       	and    $0x34c0000,%eax
 62e:	00 00                	add    %al,(%eax)
 630:	12 00                	adc    (%eax),%al
 632:	0a 00                	or     (%eax),%al
 634:	cd 01                	int    $0x1
 636:	00 00                	add    %al,(%eax)
 638:	f0 3b 00             	lock cmp (%eax),%eax
 63b:	00 38                	add    %bh,(%eax)
 63d:	00 00                	add    %al,(%eax)
 63f:	00 12                	add    %dl,(%edx)
 641:	00 0a                	add    %cl,(%edx)
 643:	00 fa                	add    %bh,%dl
 645:	02 00                	add    (%eax),%al
 647:	00 00                	add    %al,(%eax)
 649:	00 00                	add    %al,(%eax)
 64b:	00 7e 01             	add    %bh,0x1(%esi)
 64e:	00 00                	add    %al,(%eax)
 650:	12 00                	adc    (%eax),%al
 652:	00 00                	add    %al,(%eax)
 654:	ba 01 00 00 30       	mov    $0x30000001,%edx
 659:	2e 00 00             	add    %al,%cs:(%eax)
 65c:	8c 00                	movl   %es,(%eax)
 65e:	00 00                	add    %al,(%eax)
 660:	12 00                	adc    (%eax),%al
 662:	0a 00                	or     (%eax),%al
 664:	a3 03 00 00 00       	mov    %eax,0x3
 669:	00 00                	add    %al,(%eax)
 66b:	00 3f                	add    %bh,(%edi)
 66d:	00 00                	add    %al,(%eax)
 66f:	00 12                	add    %dl,(%edx)
 671:	00 00                	add    %al,(%eax)
 673:	00 94 01 00 00 b0 2f 	add    %dl,0x2fb00000(%ecx,%eax,1)
 67a:	00 00                	add    %al,(%eax)
 67c:	64 00 00             	add    %al,%fs:(%eax)
 67f:	00 12                	add    %dl,(%edx)
 681:	00 0a                	add    %cl,(%edx)
 683:	00 25 02 00 00 80    	add    %ah,0x80000002
 689:	54                   	push   %esp
 68a:	00 00                	add    %al,(%eax)
 68c:	80 02 00             	addb   $0x0,(%edx)
 68f:	00 11                	add    %dl,(%ecx)
 691:	00 16                	add    %dl,(%esi)
 693:	00 87 01 00 00 10    	add    %al,0x10000001(%edi)
 699:	31 00                	xor    %eax,(%eax)
 69b:	00 09                	add    %cl,(%ecx)
 69d:	00 00                	add    %al,(%eax)
 69f:	00 12                	add    %dl,(%edx)
 6a1:	00 0a                	add    %cl,(%edx)
 6a3:	00 2e                	add    %ch,(%esi)
 6a5:	03 00                	add    (%eax),%eax
 6a7:	00 00                	add    %al,(%eax)
 6a9:	00 00                	add    %al,(%eax)
 6ab:	00 65 00             	add    %ah,0x0(%ebp)
 6ae:	00 00                	add    %al,(%eax)
 6b0:	12 00                	adc    (%eax),%al
 6b2:	00 00                	add    %al,(%eax)
 6b4:	63 01                	arpl   %ax,(%ecx)
 6b6:	00 00                	add    %al,(%eax)
 6b8:	f0 32 00             	lock xor (%eax),%al
 6bb:	00 94 01 00 00 12 00 	add    %dl,0x120000(%ecx,%eax,1)
 6c2:	0a 00                	or     (%eax),%al
 6c4:	97                   	xchg   %eax,%edi
 6c5:	02 00                	add    (%eax),%al
 6c7:	00 00                	add    %al,(%eax)
 6c9:	00 00                	add    %al,(%eax)
 6cb:	00 af 00 00 00 12    	add    %ch,0x12000000(%edi)
 6d1:	00 00                	add    %al,(%eax)
 6d3:	00 24 03             	add    %ah,(%ebx,%eax,1)
 6d6:	00 00                	add    %al,(%eax)
 6d8:	00 00                	add    %al,(%eax)
 6da:	00 00                	add    %al,(%eax)
 6dc:	50                   	push   %eax
 6dd:	00 00                	add    %al,(%eax)
 6df:	00 12                	add    %dl,(%edx)
 6e1:	00 00                	add    %al,(%eax)
 6e3:	00 5c 01 00          	add    %bl,0x0(%ecx,%eax,1)
 6e7:	00 b0 2d 00 00 75    	add    %dh,0x7500002d(%eax)
 6ed:	00 00                	add    %al,(%eax)
 6ef:	00 12                	add    %dl,(%edx)
 6f1:	00 0a                	add    %cl,(%edx)
 6f3:	00 63 00             	add    %ah,0x0(%ebx)
 6f6:	00 00                	add    %al,(%eax)
 6f8:	50                   	push   %eax
 6f9:	54                   	push   %esp
 6fa:	00 00                	add    %al,(%eax)
 6fc:	08 00                	or     %al,(%eax)
 6fe:	00 00                	add    %al,(%eax)
 700:	11 00                	adc    %eax,(%eax)
 702:	16                   	push   %ss
 703:	00 0d 03 00 00 00    	add    %cl,0x3
 709:	00 00                	add    %al,(%eax)
 70b:	00 9b 00 00 00 12    	add    %bl,0x12000000(%ebx)
 711:	00 00                	add    %al,(%eax)
 713:	00 31                	add    %dh,(%ecx)
 715:	02 00                	add    (%eax),%al
 717:	00 00                	add    %al,(%eax)
 719:	00 00                	add    %al,(%eax)
 71b:	00 eb                	add    %ch,%bl
 71d:	00 00                	add    %al,(%eax)
 71f:	00 12                	add    %dl,(%edx)
 721:	00 00                	add    %al,(%eax)
 723:	00 bd 02 00 00 00    	add    %bh,0x2(%ebp)
 729:	00 00                	add    %al,(%eax)
 72b:	00 5f 00             	add    %bl,0x0(%edi)
 72e:	00 00                	add    %al,(%eax)
 730:	12 00                	adc    (%eax),%al
 732:	00 00                	add    %al,(%eax)
 734:	cf                   	iret   
 735:	03 00                	add    (%eax),%eax
 737:	00 30                	add    %dh,(%eax)
 739:	54                   	push   %esp
 73a:	00 00                	add    %al,(%eax)
 73c:	00 00                	add    %al,(%eax)
 73e:	00 00                	add    %al,(%eax)
 740:	10 00                	adc    %al,(%eax)
 742:	f1                   	icebp  
 743:	ff 41 02             	incl   0x2(%ecx)
 746:	00 00                	add    %al,(%eax)
 748:	9b                   	fwait
 749:	2b 00                	sub    (%eax),%eax
 74b:	00 ca                	add    %cl,%dl
 74d:	01 00                	add    %eax,(%eax)
 74f:	00 12                	add    %dl,(%edx)
 751:	00 0a                	add    %cl,(%edx)
 753:	00 e4                	add    %ah,%ah
 755:	02 00                	add    (%eax),%al
 757:	00 f0                	add    %dh,%al
 759:	66                   	data16
 75a:	00 00                	add    %al,(%eax)
 75c:	04 00                	add    $0x0,%al
 75e:	00 00                	add    %al,(%eax)
 760:	11 00                	adc    %eax,(%eax)
 762:	16                   	push   %ss
 763:	00 c3                	add    %al,%bl
 765:	02 00                	add    (%eax),%al
 767:	00 f4                	add    %dh,%ah
 769:	66                   	data16
 76a:	00 00                	add    %al,(%eax)
 76c:	18 00                	sbb    %al,(%eax)
 76e:	00 00                	add    %al,(%eax)
 770:	11 00                	adc    %eax,(%eax)
 772:	16                   	push   %ss
 773:	00 1f                	add    %bl,(%edi)
 775:	00 00                	add    %al,(%eax)
 777:	00 d0                	add    %dl,%al
 779:	3d 00 00 00 00       	cmp    $0x0,%eax
 77e:	00 00                	add    %al,(%eax)
 780:	12 00                	adc    (%eax),%al
 782:	0b 00                	or     (%eax),%eax
 784:	ad                   	lods   %ds:(%esi),%eax
 785:	03 00                	add    (%eax),%eax
 787:	00 00                	add    %al,(%eax)
 789:	00 00                	add    %al,(%eax)
 78b:	00 b6 00 00 00 12    	add    %dh,0x12000000(%esi)
 791:	00 00                	add    %al,(%eax)
 793:	00 a4 01 00 00 90 34 	add    %ah,0x34900000(%ecx,%eax,1)
 79a:	00 00                	add    %al,(%eax)
 79c:	07                   	pop    %es
 79d:	01 00                	add    %eax,(%eax)
 79f:	00 12                	add    %dl,(%edx)
 7a1:	00 0a                	add    %cl,(%edx)
 7a3:	00 c1                	add    %al,%cl
 7a5:	01 00                	add    %eax,(%eax)
 7a7:	00 90 39 00 00 2b    	add    %dl,0x2b000039(%eax)
 7ad:	00 00                	add    %al,(%eax)
 7af:	00 12                	add    %dl,(%edx)
 7b1:	00 0a                	add    %cl,(%edx)
 7b3:	00 96 03 00 00 00    	add    %dl,0x3(%esi)
 7b9:	00 00                	add    %al,(%eax)
 7bb:	00 3d 00 00 00 12    	add    %bh,0x12000000
 7c1:	00 00                	add    %al,(%eax)
 7c3:	00 25 00 00 00 00    	add    %ah,0x0
 7c9:	00 00                	add    %al,(%eax)
 7cb:	00 a9 00 00 00 22    	add    %ch,0x22000000(%ecx)
 7d1:	00 00                	add    %al,(%eax)
 7d3:	00 34 01             	add    %dh,(%ecx,%eax,1)
 7d6:	00 00                	add    %al,(%eax)
 7d8:	37                   	aaa    
 7d9:	29 00                	sub    %eax,(%eax)
 7db:	00 3c 02             	add    %bh,(%edx,%eax,1)
 7de:	00 00                	add    %al,(%eax)
 7e0:	12 00                	adc    (%eax),%al
 7e2:	0a 00                	or     (%eax),%al
 7e4:	01 03                	add    %eax,(%ebx)
 7e6:	00 00                	add    %al,(%eax)
 7e8:	00 00                	add    %al,(%eax)
 7ea:	00 00                	add    %al,(%eax)
 7ec:	35 00 00 00 12       	xor    $0x12000000,%eax
 7f1:	00 00                	add    %al,(%eax)
 7f3:	00 3a                	add    %bh,(%edx)
 7f5:	03 00                	add    (%eax),%eax
 7f7:	00 00                	add    %al,(%eax)
 7f9:	00 00                	add    %al,(%eax)
 7fb:	00 3f                	add    %bh,(%edi)
 7fd:	00 00                	add    %al,(%eax)
 7ff:	00 12                	add    %dl,(%edx)
 801:	00 00                	add    %al,(%eax)
 803:	00 b8 02 00 00 00    	add    %bh,0x2(%eax)
 809:	00 00                	add    %al,(%eax)
 80b:	00 f1                	add    %dh,%cl
 80d:	00 00                	add    %al,(%eax)
 80f:	00 12                	add    %dl,(%edx)
 811:	00 00                	add    %al,(%eax)
 813:	00 fa                	add    %bh,%dl
 815:	01 00                	add    %eax,(%eax)
 817:	00 e0                	add    %ah,%al
 819:	30 00                	xor    %al,(%eax)
 81b:	00 24 00             	add    %ah,(%eax,%eax,1)
 81e:	00 00                	add    %al,(%eax)
 820:	12 00                	adc    (%eax),%al
 822:	0a 00                	or     (%eax),%al
 824:	c8 03 00 00          	enter  $0x3,$0x0
 828:	30 54 00 00          	xor    %dl,0x0(%eax,%eax,1)
 82c:	00 00                	add    %al,(%eax)
 82e:	00 00                	add    %al,(%eax)
 830:	10 00                	adc    %al,(%eax)
 832:	f1                   	icebp  
 833:	ff                   	(bad)  
 834:	b8 00 00 00 79       	mov    $0x79000000,%eax
 839:	22 00                	and    (%eax),%al
 83b:	00 29                	add    %ch,(%ecx)
 83d:	00 00                	add    %al,(%eax)
 83f:	00 12                	add    %dl,(%edx)
 841:	00 0a                	add    %cl,(%edx)
 843:	00 db                	add    %bl,%bl
 845:	03 00                	add    (%eax),%eax
 847:	00 0c 67             	add    %cl,(%edi)
 84a:	00 00                	add    %al,(%eax)
 84c:	00 00                	add    %al,(%eax)
 84e:	00 00                	add    %al,(%eax)
 850:	10 00                	adc    %al,(%eax)
 852:	f1                   	icebp  
 853:	ff 73 01             	pushl  0x1(%ebx)
 856:	00 00                	add    %al,(%eax)
 858:	00 2f                	add    %ch,(%edi)
 85a:	00 00                	add    %al,(%eax)
 85c:	0f 00 00             	sldtl  (%eax)
 85f:	00 12                	add    %dl,(%edx)
 861:	00 0a                	add    %cl,(%edx)
 863:	00 50 01             	add    %dl,0x1(%eax)
 866:	00 00                	add    %al,(%eax)
 868:	00 57 00             	add    %dl,0x0(%edi)
 86b:	00 f0                	add    %dh,%al
 86d:	0f 00 00             	sldtl  (%eax)
 870:	11 00                	adc    %eax,(%eax)
 872:	16                   	push   %ss
 873:	00 39                	add    %bh,(%ecx)
 875:	02 00                	add    (%eax),%al
 877:	00 00                	add    %al,(%eax)
 879:	00 00                	add    %al,(%eax)
 87b:	00 a0 00 00 00 12    	add    %ah,0x12000000(%eax)
 881:	00 00                	add    %al,(%eax)
 883:	00 58 03             	add    %bl,0x3(%eax)
 886:	00 00                	add    %al,(%eax)
 888:	00 00                	add    %al,(%eax)
 88a:	00 00                	add    %al,(%eax)
 88c:	3d 00 00 00 12       	cmp    $0x12000000,%eax
 891:	00 00                	add    %al,(%eax)
 893:	00 18                	add    %bl,(%eax)
 895:	02 00                	add    (%eax),%al
 897:	00 c0                	add    %al,%al
 899:	2e 00 00             	add    %al,%cs:(%eax)
 89c:	40                   	inc    %eax
 89d:	00 00                	add    %al,(%eax)
 89f:	00 12                	add    %dl,(%edx)
 8a1:	00 0a                	add    %cl,(%edx)
 8a3:	00 3f                	add    %bh,(%edi)
 8a5:	01 00                	add    %eax,(%eax)
 8a7:	00 73 2b             	add    %dh,0x2b(%ebx)
 8aa:	00 00                	add    %al,(%eax)
 8ac:	28 00                	sub    %al,(%eax)
 8ae:	00 00                	add    %al,(%eax)
 8b0:	12 00                	adc    (%eax),%al
 8b2:	0a 00                	or     (%eax),%al
 8b4:	8f 02                	popl   (%edx)
 8b6:	00 00                	add    %al,(%eax)
 8b8:	00 00                	add    %al,(%eax)
 8ba:	00 00                	add    %al,(%eax)
 8bc:	34 00                	xor    $0x0,%al
 8be:	00 00                	add    %al,(%eax)
 8c0:	12 00                	adc    (%eax),%al
 8c2:	00 00                	add    %al,(%eax)
 8c4:	34 00                	xor    $0x0,%al
	...
 8ce:	00 00                	add    %al,(%eax)
 8d0:	20 00                	and    %al,(%eax)
 8d2:	00 00                	add    %al,(%eax)
 8d4:	48                   	dec    %eax
 8d5:	00 00                	add    %al,(%eax)
 8d7:	00 44 54 00          	add    %al,0x0(%esp,%edx,2)
 8db:	00 04 00             	add    %al,(%eax,%eax,1)
 8de:	00 00                	add    %al,(%eax)
 8e0:	11 00                	adc    %eax,(%eax)
 8e2:	16                   	push   %ss
 8e3:	00 ed                	add    %ch,%ch
 8e5:	01 00                	add    %eax,(%eax)
 8e7:	00 20                	add    %ah,(%eax)
 8e9:	30 00                	xor    %al,(%eax)
 8eb:	00 b8 00 00 00 12    	add    %bh,0x12000000(%eax)
 8f1:	00 0a                	add    %cl,(%edx)
 8f3:	00 f7                	add    %dh,%bh
 8f5:	00 00                	add    %al,(%eax)
 8f7:	00 b0 23 00 00 9b    	add    %dh,0x9b000023(%eax)
 8fd:	00 00                	add    %al,(%eax)
 8ff:	00 12                	add    %dl,(%edx)
 901:	00 0a                	add    %cl,(%edx)
 903:	00 56 00             	add    %dl,0x0(%esi)
 906:	00 00                	add    %al,(%eax)
 908:	48                   	dec    %eax
 909:	54                   	push   %esp
 90a:	00 00                	add    %al,(%eax)
 90c:	08 00                	or     %al,(%eax)
 90e:	00 00                	add    %al,(%eax)
 910:	11 00                	adc    %eax,(%eax)
 912:	16                   	push   %ss
 913:	00 a6 00 00 00 e3    	add    %ah,0xe3000000(%esi)
 919:	21 00                	and    %eax,(%eax)
 91b:	00 59 00             	add    %bl,0x0(%ecx)
 91e:	00 00                	add    %al,(%eax)
 920:	12 00                	adc    (%eax),%al
 922:	0a 00                	or     (%eax),%al
 924:	a4                   	movsb  %ds:(%esi),%es:(%edi)
 925:	02 00                	add    (%eax),%al
 927:	00 00                	add    %al,(%eax)
 929:	00 00                	add    %al,(%eax)
 92b:	00 b5 00 00 00 12    	add    %dh,0x12000000(%ebp)
 931:	00 00                	add    %al,(%eax)
 933:	00 81 03 00 00 00    	add    %al,0x3(%ecx)
 939:	00 00                	add    %al,(%eax)
 93b:	00 7a 00             	add    %bh,0x0(%edx)
 93e:	00 00                	add    %al,(%eax)
 940:	12 00                	adc    (%eax),%al
 942:	00 00                	add    %al,(%eax)
 944:	0a 00                	or     (%eax),%al
	...
 94e:	00 00                	add    %al,(%eax)
 950:	20 00                	and    %al,(%eax)
 952:	00 00                	add    %al,(%eax)
 954:	ed                   	in     (%dx),%eax
 955:	02 00                	add    (%eax),%al
 957:	00 00                	add    %al,(%eax)
 959:	00 00                	add    %al,(%eax)
 95b:	00 65 00             	add    %ah,0x0(%ebp)
 95e:	00 00                	add    %al,(%eax)
 960:	12 00                	adc    (%eax),%al
 962:	00 00                	add    %al,(%eax)
 964:	66                   	data16
 965:	02 00                	add    (%eax),%al
 967:	00 20                	add    %ah,(%eax)
 969:	3a 00                	cmp    (%eax),%al
 96b:	00 9c 00 00 00 12 00 	add    %bl,0x120000(%eax,%eax,1)
 972:	0a 00                	or     (%eax),%al
Desensamblado de la sección .dynstr:

00000974 <.dynstr>:
 974:	00 5f 44             	add    %bl,0x44(%edi)
 977:	59                   	pop    %ecx
 978:	4e                   	dec    %esi
 979:	41                   	inc    %ecx
 97a:	4d                   	dec    %ebp
 97b:	49                   	dec    %ecx
 97c:	43                   	inc    %ebx
 97d:	00 5f 5f             	add    %bl,0x5f(%edi)
 980:	67 6d                	addr16 insl (%dx),%es:(%di)
 982:	6f                   	outsl  %ds:(%esi),(%dx)
 983:	6e                   	outsb  %ds:(%esi),(%dx)
 984:	5f                   	pop    %edi
 985:	73 74                	jae    9fb <_init-0x10c9>
 987:	61                   	popa   
 988:	72 74                	jb     9fe <_init-0x10c6>
 98a:	5f                   	pop    %edi
 98b:	5f                   	pop    %edi
 98c:	00 5f 69             	add    %bl,0x69(%edi)
 98f:	6e                   	outsb  %ds:(%esi),(%dx)
 990:	69 74 00 5f 66 69 6e 	imul   $0x696e6966,0x5f(%eax,%eax,1),%esi
 997:	69 
 998:	00 5f 5f             	add    %bl,0x5f(%edi)
 99b:	63 78 61             	arpl   %di,0x61(%eax)
 99e:	5f                   	pop    %edi
 99f:	66 69 6e 61 6c 69    	imul   $0x696c,0x61(%esi),%bp
 9a5:	7a 65                	jp     a0c <_init-0x10b8>
 9a7:	00 5f 4a             	add    %bl,0x4a(%edi)
 9aa:	76 5f                	jbe    a0b <_init-0x10b9>
 9ac:	52                   	push   %edx
 9ad:	65 67 69 73 74 65 72 	addr16 imul $0x6c437265,%gs:116(%bp,%di),%esi
 9b4:	43 6c 
 9b6:	61                   	popa   
 9b7:	73 73                	jae    a2c <_init-0x1098>
 9b9:	65                   	gs
 9ba:	73 00                	jae    9bc <_init-0x1108>
 9bc:	70 5f                	jo     a1d <_init-0x10a7>
 9be:	70 72                	jo     a32 <_init-0x1092>
 9c0:	6f                   	outsl  %ds:(%esi),(%dx)
 9c1:	63 5f 61             	arpl   %bx,0x61(%edi)
 9c4:	63 74 75 61          	arpl   %si,0x61(%ebp,%esi,2)
 9c8:	6c                   	insb   (%dx),%es:(%edi)
 9c9:	00 6c 69 73          	add    %ch,0x73(%ecx,%ebp,2)
 9cd:	74 61                	je     a30 <_init-0x1094>
 9cf:	5f                   	pop    %edi
 9d0:	6c                   	insb   (%dx),%es:(%edi)
 9d1:	69 73 74 6f 73 00 6c 	imul   $0x6c00736f,0x74(%ebx),%esi
 9d8:	69 73 74 61 5f 64 6f 	imul   $0x6f645f61,0x74(%ebx),%esi
 9df:	72 6d                	jb     a4e <_init-0x1076>
 9e1:	69 64 6f 73 00 61 63 	imul   $0x63636100,0x73(%edi,%ebp,2),%esp
 9e8:	63 
 9e9:	65 64 69 65 6e 64 6f 	imul   $0x705f6f64,%fs:%gs:0x6e(%ebp),%esp
 9f0:	5f 70 
 9f2:	61                   	popa   
 9f3:	72 61                	jb     a56 <_init-0x106e>
 9f5:	6d                   	insl   (%dx),%es:(%edi)
 9f6:	65                   	gs
 9f7:	74 72                	je     a6b <_init-0x1059>
 9f9:	6f                   	outsl  %ds:(%esi),(%dx)
 9fa:	00 74 69 65          	add    %dh,0x65(%ecx,%ebp,2)
 9fe:	6d                   	insl   (%dx),%es:(%edi)
 9ff:	70 6f                	jo     a70 <_init-0x1054>
 a01:	5f                   	pop    %edi
 a02:	73 69                	jae    a6d <_init-0x1057>
 a04:	73 74                	jae    a7a <_init-0x104a>
 a06:	65                   	gs
 a07:	6d                   	insl   (%dx),%es:(%edi)
 a08:	61                   	popa   
 a09:	00 74 61 62          	add    %dh,0x62(%ecx)
 a0d:	6c                   	insb   (%dx),%es:(%edi)
 a0e:	61                   	popa   
 a0f:	5f                   	pop    %edi
 a10:	73 65                	jae    a77 <_init-0x104d>
 a12:	72 76                	jb     a8a <_init-0x103a>
 a14:	69 63 69 6f 73 00 73 	imul   $0x7300736f,0x69(%ebx),%esp
 a1b:	69 73 5f 63 72 65 61 	imul   $0x61657263,0x5f(%ebx),%esi
 a22:	72 5f                	jb     a83 <_init-0x1041>
 a24:	70 72                	jo     a98 <_init-0x102c>
 a26:	6f                   	outsl  %ds:(%esi),(%dx)
 a27:	63 65 73             	arpl   %sp,0x73(%ebp)
 a2a:	6f                   	outsl  %ds:(%esi),(%dx)
 a2b:	00 73 69             	add    %dh,0x69(%ebx)
 a2e:	73 5f                	jae    a8f <_init-0x1035>
 a30:	74 65                	je     a97 <_init-0x102d>
 a32:	72 6d                	jb     aa1 <_init-0x1023>
 a34:	69 6e 61 72 5f 70 72 	imul   $0x72705f72,0x61(%esi),%ebp
 a3b:	6f                   	outsl  %ds:(%esi),(%dx)
 a3c:	63 65 73             	arpl   %sp,0x73(%ebp)
 a3f:	6f                   	outsl  %ds:(%esi),(%dx)
 a40:	00 73 69             	add    %dh,0x69(%ebx)
 a43:	73 5f                	jae    aa4 <_init-0x1020>
 a45:	65                   	gs
 a46:	73 63                	jae    aab <_init-0x1019>
 a48:	72 69                	jb     ab3 <_init-0x1011>
 a4a:	62 69 72             	bound  %ebp,0x72(%ecx)
 a4d:	00 73 69             	add    %dh,0x69(%ebx)
 a50:	73 5f                	jae    ab1 <_init-0x1013>
 a52:	6f                   	outsl  %ds:(%esi),(%dx)
 a53:	62 74 65 6e          	bound  %esi,0x6e(%ebp)
 a57:	65                   	gs
 a58:	72 5f                	jb     ab9 <_init-0x100b>
 a5a:	69 64 5f 70 72 00 73 	imul   $0x69730072,0x70(%edi,%ebx,2),%esp
 a61:	69 
 a62:	73 5f                	jae    ac3 <_init-0x1001>
 a64:	64 6f                	outsl  %fs:(%esi),(%dx)
 a66:	72 6d                	jb     ad5 <_init-0xfef>
 a68:	69 72 00 73 69 73 5f 	imul   $0x5f736973,0x0(%edx),%esi
 a6f:	74 69                	je     ada <_init-0xfea>
 a71:	65                   	gs
 a72:	6d                   	insl   (%dx),%es:(%edi)
 a73:	70 6f                	jo     ae4 <_init-0xfe0>
 a75:	73 5f                	jae    ad6 <_init-0xfee>
 a77:	70 72                	jo     aeb <_init-0xfd9>
 a79:	6f                   	outsl  %ds:(%esi),(%dx)
 a7a:	63 65 73             	arpl   %sp,0x73(%ebp)
 a7d:	6f                   	outsl  %ds:(%esi),(%dx)
 a7e:	00 73 69             	add    %dh,0x69(%ebx)
 a81:	73 5f                	jae    ae2 <_init-0xfe2>
 a83:	63 72 65             	arpl   %si,0x65(%edx)
 a86:	61                   	popa   
 a87:	72 5f                	jb     ae8 <_init-0xfdc>
 a89:	6d                   	insl   (%dx),%es:(%edi)
 a8a:	75 74                	jne    b00 <_init-0xfc4>
 a8c:	65                   	gs
 a8d:	78 00                	js     a8f <_init-0x1035>
 a8f:	73 69                	jae    afa <_init-0xfca>
 a91:	73 5f                	jae    af2 <_init-0xfd2>
 a93:	61                   	popa   
 a94:	62 72 69             	bound  %esi,0x69(%edx)
 a97:	72 5f                	jb     af8 <_init-0xfcc>
 a99:	6d                   	insl   (%dx),%es:(%edi)
 a9a:	75 74                	jne    b10 <_init-0xfb4>
 a9c:	65                   	gs
 a9d:	78 00                	js     a9f <_init-0x1025>
 a9f:	73 69                	jae    b0a <_init-0xfba>
 aa1:	73 5f                	jae    b02 <_init-0xfc2>
 aa3:	6c                   	insb   (%dx),%es:(%edi)
 aa4:	6f                   	outsl  %ds:(%esi),(%dx)
 aa5:	63 6b 00             	arpl   %bp,0x0(%ebx)
 aa8:	73 69                	jae    b13 <_init-0xfb1>
 aaa:	73 5f                	jae    b0b <_init-0xfb9>
 aac:	75 6e                	jne    b1c <_init-0xfa8>
 aae:	6c                   	insb   (%dx),%es:(%edi)
 aaf:	6f                   	outsl  %ds:(%esi),(%dx)
 ab0:	63 6b 00             	arpl   %bp,0x0(%ebx)
 ab3:	73 69                	jae    b1e <_init-0xfa6>
 ab5:	73 5f                	jae    b16 <_init-0xfae>
 ab7:	63 65 72             	arpl   %sp,0x72(%ebp)
 aba:	72 61                	jb     b1d <_init-0xfa7>
 abc:	72 5f                	jb     b1d <_init-0xfa7>
 abe:	6d                   	insl   (%dx),%es:(%edi)
 abf:	75 74                	jne    b35 <_init-0xf8f>
 ac1:	65                   	gs
 ac2:	78 00                	js     ac4 <_init-0x1000>
 ac4:	74 61                	je     b27 <_init-0xf9d>
 ac6:	62 6c 61 5f          	bound  %ebp,0x5f(%ecx)
 aca:	70 72                	jo     b3e <_init-0xf86>
 acc:	6f                   	outsl  %ds:(%esi),(%dx)
 acd:	63 73 00             	arpl   %si,0x0(%ebx)
 ad0:	70 72                	jo     b44 <_init-0xf80>
 ad2:	69 6e 74 6b 00 66 69 	imul   $0x6966006b,0x74(%esi),%ebp
 ad9:	6a 61                	push   $0x61
 adb:	72 5f                	jb     b3c <_init-0xf88>
 add:	6e                   	outsb  %ds:(%esi),(%dx)
 ade:	69 76 65 6c 5f 69 6e 	imul   $0x6e695f6c,0x65(%esi),%esi
 ae5:	74 00                	je     ae7 <_init-0xfdd>
 ae7:	68 61 6c 74 00       	push   $0x746c61
 aec:	6c                   	insb   (%dx),%es:(%edi)
 aed:	69 62 65 72 61 72 5f 	imul   $0x5f726172,0x65(%edx),%esp
 af4:	69 6d 61 67 65 6e 00 	imul   $0x6e6567,0x61(%ebp),%ebp
 afb:	6c                   	insb   (%dx),%es:(%edi)
 afc:	69 62 65 72 61 72 5f 	imul   $0x5f726172,0x65(%edx),%esp
 b03:	70 69                	jo     b6e <_init-0xf56>
 b05:	6c                   	insb   (%dx),%es:(%edi)
 b06:	61                   	popa   
 b07:	00 63 61             	add    %ah,0x61(%ebx)
 b0a:	6d                   	insl   (%dx),%es:(%edi)
 b0b:	62 69 6f             	bound  %ebp,0x6f(%ecx)
 b0e:	5f                   	pop    %edi
 b0f:	63 6f 6e             	arpl   %bp,0x6e(%edi)
 b12:	74 65                	je     b79 <_init-0xf4b>
 b14:	78 74                	js     b8a <_init-0xf3a>
 b16:	6f                   	outsl  %ds:(%esi),(%dx)
 b17:	00 76 69             	add    %dh,0x69(%esi)
 b1a:	65 6e                	outsb  %gs:(%esi),(%dx)
 b1c:	65                   	gs
 b1d:	5f                   	pop    %edi
 b1e:	64                   	fs
 b1f:	65                   	gs
 b20:	5f                   	pop    %edi
 b21:	6d                   	insl   (%dx),%es:(%edi)
 b22:	6f                   	outsl  %ds:(%esi),(%dx)
 b23:	64 6f                	outsl  %fs:(%esi),(%dx)
 b25:	5f                   	pop    %edi
 b26:	75 73                	jne    b9b <_init-0xf29>
 b28:	75 61                	jne    b8b <_init-0xf39>
 b2a:	72 69                	jb     b95 <_init-0xf2f>
 b2c:	6f                   	outsl  %ds:(%esi),(%dx)
 b2d:	00 70 61             	add    %dh,0x61(%eax)
 b30:	6e                   	outsb  %ds:(%esi),(%dx)
 b31:	69 63 6f 00 6c 65 65 	imul   $0x65656c00,0x6f(%ebx),%esp
 b38:	72 5f                	jb     b99 <_init-0xf2b>
 b3a:	70 75                	jo     bb1 <_init-0xf13>
 b3c:	65                   	gs
 b3d:	72 74                	jb     bb3 <_init-0xf11>
 b3f:	6f                   	outsl  %ds:(%esi),(%dx)
 b40:	00 6c 65 65          	add    %ch,0x65(%ebp)
 b44:	72 5f                	jb     ba5 <_init-0xf1f>
 b46:	72 65                	jb     bad <_init-0xf17>
 b48:	67 69 73 74 72 6f 00 	addr16 imul $0x65006f72,116(%bp,%di),%esi
 b4f:	65 
 b50:	73 63                	jae    bb5 <_init-0xf0f>
 b52:	72 69                	jb     bbd <_init-0xf07>
 b54:	62 69 72             	bound  %ebp,0x72(%ecx)
 b57:	5f                   	pop    %edi
 b58:	72 65                	jb     bbf <_init-0xf05>
 b5a:	67 69 73 74 72 6f 00 	addr16 imul $0x63006f72,116(%bp,%di),%esi
 b61:	63 
 b62:	72 65                	jb     bc9 <_init-0xefb>
 b64:	61                   	popa   
 b65:	72 5f                	jb     bc6 <_init-0xefe>
 b67:	69 6d 61 67 65 6e 00 	imul   $0x6e6567,0x61(%ebp),%ebp
 b6e:	63 72 65             	arpl   %si,0x65(%edx)
 b71:	61                   	popa   
 b72:	72 5f                	jb     bd3 <_init-0xef1>
 b74:	70 69                	jo     bdf <_init-0xee5>
 b76:	6c                   	insb   (%dx),%es:(%edi)
 b77:	61                   	popa   
 b78:	00 66 69             	add    %ah,0x69(%esi)
 b7b:	6a 61                	push   $0x61
 b7d:	72 5f                	jb     bde <_init-0xee6>
 b7f:	63 6f 6e             	arpl   %bp,0x6e(%edi)
 b82:	74 65                	je     be9 <_init-0xedb>
 b84:	78 74                	js     bfa <_init-0xeca>
 b86:	6f                   	outsl  %ds:(%esi),(%dx)
 b87:	5f                   	pop    %edi
 b88:	69 6e 69 00 65 73 63 	imul   $0x63736500,0x69(%esi),%ebp
 b8f:	72 69                	jb     bfa <_init-0xeca>
 b91:	62 69 72             	bound  %ebp,0x72(%ecx)
 b94:	5f                   	pop    %edi
 b95:	6b 65 72 00          	imul   $0x0,0x72(%ebp),%esp
 b99:	6c                   	insb   (%dx),%es:(%edi)
 b9a:	69 73 74 61 5f 6d 75 	imul   $0x756d5f61,0x74(%ebx),%esi
 ba1:	74 65                	je     c08 <_init-0xebc>
 ba3:	78 00                	js     ba5 <_init-0xf1f>
 ba5:	73 74                	jae    c1b <_init-0xea9>
 ba7:	72 6e                	jb     c17 <_init-0xead>
 ba9:	63 6d 70             	arpl   %bp,0x70(%ebp)
 bac:	00 73 74             	add    %dh,0x74(%ebx)
 baf:	72 6e                	jb     c1f <_init-0xea5>
 bb1:	63 70 79             	arpl   %si,0x79(%eax)
 bb4:	00 6d 61             	add    %ch,0x61(%ebp)
 bb7:	69 6e 00 69 6e 73 74 	imul   $0x74736e69,0x0(%esi),%ebp
 bbe:	61                   	popa   
 bbf:	6c                   	insb   (%dx),%es:(%edi)
 bc0:	5f                   	pop    %edi
 bc1:	6d                   	insl   (%dx),%es:(%edi)
 bc2:	61                   	popa   
 bc3:	6e                   	outsb  %ds:(%esi),(%dx)
 bc4:	5f                   	pop    %edi
 bc5:	69 6e 74 00 69 6e 69 	imul   $0x696e6900,0x74(%esi),%ebp
 bcc:	63 69 61             	arpl   %bp,0x61(%ecx)
 bcf:	72 5f                	jb     c30 <_init-0xe94>
 bd1:	63 6f 6e             	arpl   %bp,0x6e(%edi)
 bd4:	74 5f                	je     c35 <_init-0xe8f>
 bd6:	69 6e 74 00 69 6e 69 	imul   $0x696e6900,0x74(%esi),%ebp
 bdd:	63 69 61             	arpl   %bp,0x61(%ecx)
 be0:	72 5f                	jb     c41 <_init-0xe83>
 be2:	63 6f 6e             	arpl   %bp,0x6e(%edi)
 be5:	74 5f                	je     c46 <_init-0xe7e>
 be7:	72 65                	jb     c4e <_init-0xe76>
 be9:	6c                   	insb   (%dx),%es:(%edi)
 bea:	6f                   	outsl  %ds:(%esi),(%dx)
 beb:	6a 00                	push   $0x0
 bed:	69 6e 69 63 69 61 72 	imul   $0x72616963,0x69(%esi),%ebp
 bf4:	5f                   	pop    %edi
 bf5:	63 6f 6e             	arpl   %bp,0x6e(%edi)
 bf8:	74 5f                	je     c59 <_init-0xe6b>
 bfa:	74 65                	je     c61 <_init-0xe63>
 bfc:	63 6c 61 64          	arpl   %bp,0x64(%ecx)
 c00:	6f                   	outsl  %ds:(%esi),(%dx)
 c01:	00 76 73             	add    %dh,0x73(%esi)
 c04:	70 72                	jo     c78 <_init-0xe4c>
 c06:	69 6e 74 66 00 73 74 	imul   $0x74730066,0x74(%esi),%ebp
 c0d:	72 6c                	jb     c7b <_init-0xe49>
 c0f:	65 6e                	outsb  %gs:(%esi),(%dx)
 c11:	00 77 72             	add    %dh,0x72(%edi)
 c14:	69 74 65 00 74 63 67 	imul   $0x65676374,0x0(%ebp),%esi
 c1b:	65 
 c1c:	74 61                	je     c7f <_init-0xe45>
 c1e:	74 74                	je     c94 <_init-0xe30>
 c20:	72 00                	jb     c22 <_init-0xea2>
 c22:	74 63                	je     c87 <_init-0xe3d>
 c24:	73 65                	jae    c8b <_init-0xe39>
 c26:	74 61                	je     c89 <_init-0xe3b>
 c28:	74 74                	je     c9e <_init-0xe26>
 c2a:	72 00                	jb     c2c <_init-0xe98>
 c2c:	65                   	gs
 c2d:	78 69                	js     c98 <_init-0xe2c>
 c2f:	74 00                	je     c31 <_init-0xe93>
 c31:	70 61                	jo     c94 <_init-0xe30>
 c33:	75 73                	jne    ca8 <_init-0xe1c>
 c35:	65 00 72 65          	add    %dh,%gs:0x65(%edx)
 c39:	67 69 73 74 72 6f 73 	addr16 imul $0x736f72,116(%bp,%di),%esi
 c40:	00 
 c41:	73 77                	jae    cba <_init-0xe0a>
 c43:	61                   	popa   
 c44:	70 63                	jo     ca9 <_init-0xe1b>
 c46:	6f                   	outsl  %ds:(%esi),(%dx)
 c47:	6e                   	outsb  %ds:(%esi),(%dx)
 c48:	74 65                	je     caf <_init-0xe15>
 c4a:	78 74                	js     cc0 <_init-0xe04>
 c4c:	00 73 65             	add    %dh,0x65(%ebx)
 c4f:	74 63                	je     cb4 <_init-0xe10>
 c51:	6f                   	outsl  %ds:(%esi),(%dx)
 c52:	6e                   	outsb  %ds:(%esi),(%dx)
 c53:	74 65                	je     cba <_init-0xe0a>
 c55:	78 74                	js     ccb <_init-0xdf9>
 c57:	00 64 69 72          	add    %ah,0x72(%ecx,%ebp,2)
 c5b:	5f                   	pop    %edi
 c5c:	62 61 73             	bound  %esp,0x73(%ecx)
 c5f:	65 00 64 6c 6f       	add    %ah,%gs:0x6f(%esp,%ebp,2)
 c64:	70 65                	jo     ccb <_init-0xdf9>
 c66:	6e                   	outsb  %ds:(%esi),(%dx)
 c67:	00 64 6c 73          	add    %ah,0x73(%esp,%ebp,2)
 c6b:	79 6d                	jns    cda <_init-0xdea>
 c6d:	00 6d 61             	add    %ch,0x61(%ebp)
 c70:	6c                   	insb   (%dx),%es:(%edi)
 c71:	6c                   	insb   (%dx),%es:(%edi)
 c72:	6f                   	outsl  %ds:(%esi),(%dx)
 c73:	63 00                	arpl   %ax,(%eax)
 c75:	73 69                	jae    ce0 <_init-0xde4>
 c77:	67                   	addr16
 c78:	65                   	gs
 c79:	6d                   	insl   (%dx),%es:(%edi)
 c7a:	70 74                	jo     cf0 <_init-0xdd4>
 c7c:	79 73                	jns    cf1 <_init-0xdd3>
 c7e:	65                   	gs
 c7f:	74 00                	je     c81 <_init-0xe43>
 c81:	73 69                	jae    cec <_init-0xdd8>
 c83:	67 70 72             	addr16 jo cf8 <_init-0xdcc>
 c86:	6f                   	outsl  %ds:(%esi),(%dx)
 c87:	63 6d 61             	arpl   %bp,0x61(%ebp)
 c8a:	73 6b                	jae    cf7 <_init-0xdcd>
 c8c:	00 67 65             	add    %ah,0x65(%edi)
 c8f:	74 63                	je     cf4 <_init-0xdd0>
 c91:	6f                   	outsl  %ds:(%esi),(%dx)
 c92:	6e                   	outsb  %ds:(%esi),(%dx)
 c93:	74 65                	je     cfa <_init-0xdca>
 c95:	78 74                	js     d0b <_init-0xdb9>
 c97:	00 73 69             	add    %dh,0x69(%ebx)
 c9a:	67 61                	addr16 popa 
 c9c:	64                   	fs
 c9d:	64                   	fs
 c9e:	73 65                	jae    d05 <_init-0xdbf>
 ca0:	74 00                	je     ca2 <_init-0xe22>
 ca2:	6d                   	insl   (%dx),%es:(%edi)
 ca3:	61                   	popa   
 ca4:	6b 65 63 6f          	imul   $0x6f,0x63(%ebp),%esp
 ca8:	6e                   	outsb  %ds:(%esi),(%dx)
 ca9:	74 65                	je     d10 <_init-0xdb4>
 cab:	78 74                	js     d21 <_init-0xda3>
 cad:	00 64 6c 63          	add    %ah,0x63(%esp,%ebp,2)
 cb1:	6c                   	insb   (%dx),%es:(%edi)
 cb2:	6f                   	outsl  %ds:(%esi),(%dx)
 cb3:	73 65                	jae    d1a <_init-0xdaa>
 cb5:	00 61 63             	add    %ah,0x63(%ecx)
 cb8:	74 69                	je     d23 <_init-0xda1>
 cba:	76 61                	jbe    d1d <_init-0xda7>
 cbc:	72 5f                	jb     d1d <_init-0xda7>
 cbe:	69 6e 74 5f 53 57 00 	imul   $0x57535f,0x74(%esi),%ebp
 cc5:	67                   	addr16
 cc6:	65                   	gs
 cc7:	74 70                	je     d39 <_init-0xd8b>
 cc9:	69 64 00 6b 69 6c 6c 	imul   $0x6c6c69,0x6b(%eax,%eax,1),%esp
 cd0:	00 
 cd1:	73 69                	jae    d3c <_init-0xd88>
 cd3:	67 69 73 6d 65 6d 62 	addr16 imul $0x65626d65,109(%bp,%di),%esi
 cda:	65 
 cdb:	72 00                	jb     cdd <_init-0xde7>
 cdd:	70 65                	jo     d44 <_init-0xd80>
 cdf:	72 72                	jb     d53 <_init-0xd71>
 ce1:	6f                   	outsl  %ds:(%esi),(%dx)
 ce2:	72 00                	jb     ce4 <_init-0xde0>
 ce4:	73 65                	jae    d4b <_init-0xd79>
 ce6:	6c                   	insb   (%dx),%es:(%edi)
 ce7:	65 63 74 00 73       	arpl   %si,%gs:0x73(%eax,%eax,1)
 cec:	69 67 61 63 74 69 6f 	imul   $0x6f697463,0x61(%edi),%esp
 cf3:	6e                   	outsb  %ds:(%esi),(%dx)
 cf4:	00 72 65             	add    %dh,0x65(%edx)
 cf7:	61                   	popa   
 cf8:	64 00 6c 65 65       	add    %ch,%fs:0x65(%ebp)
 cfd:	72 5f                	jb     d5e <_init-0xd66>
 cff:	72 65                	jb     d66 <_init-0xd5e>
 d01:	6c                   	insb   (%dx),%es:(%edi)
 d02:	6f                   	outsl  %ds:(%esi),(%dx)
 d03:	6a 5f                	push   $0x5f
 d05:	43                   	inc    %ebx
 d06:	4d                   	dec    %ebp
 d07:	4f                   	dec    %edi
 d08:	53                   	push   %ebx
 d09:	00 67 65             	add    %ah,0x65(%edi)
 d0c:	74 74                	je     d82 <_init-0xd42>
 d0e:	69 6d 65 6f 66 64 61 	imul   $0x6164666f,0x65(%ebp),%ebp
 d15:	79 00                	jns    d17 <_init-0xdad>
 d17:	73 65                	jae    d7e <_init-0xd46>
 d19:	74 69                	je     d84 <_init-0xd40>
 d1b:	74 69                	je     d86 <_init-0xd3e>
 d1d:	6d                   	insl   (%dx),%es:(%edi)
 d1e:	65                   	gs
 d1f:	72 00                	jb     d21 <_init-0xda3>
 d21:	66                   	data16
 d22:	63 6e 74             	arpl   %bp,0x74(%esi)
 d25:	6c                   	insb   (%dx),%es:(%edi)
 d26:	00 6c 69 62          	add    %ch,0x62(%ecx,%ebp,2)
 d2a:	64                   	fs
 d2b:	6c                   	insb   (%dx),%es:(%edi)
 d2c:	2e 73 6f             	jae,pn d9e <_init-0xd26>
 d2f:	2e 32 00             	xor    %cs:(%eax),%al
 d32:	6c                   	insb   (%dx),%es:(%edi)
 d33:	69 62 63 2e 73 6f 2e 	imul   $0x2e6f732e,0x63(%edx),%esp
 d3a:	36 00 5f 65          	add    %bl,%ss:0x65(%edi)
 d3e:	64                   	fs
 d3f:	61                   	popa   
 d40:	74 61                	je     da3 <_init-0xd21>
 d42:	00 5f 5f             	add    %bl,0x5f(%edi)
 d45:	62 73 73             	bound  %esi,0x73(%ebx)
 d48:	5f                   	pop    %edi
 d49:	73 74                	jae    dbf <_init-0xd05>
 d4b:	61                   	popa   
 d4c:	72 74                	jb     dc2 <_init-0xd02>
 d4e:	00 5f 65             	add    %bl,0x65(%edi)
 d51:	6e                   	outsb  %ds:(%esi),(%dx)
 d52:	64 00 47 4c          	add    %al,%fs:0x4c(%edi)
 d56:	49                   	dec    %ecx
 d57:	42                   	inc    %edx
 d58:	43                   	inc    %ebx
 d59:	5f                   	pop    %edi
 d5a:	32 2e                	xor    (%esi),%ch
 d5c:	31 00                	xor    %eax,(%eax)
 d5e:	47                   	inc    %edi
 d5f:	4c                   	dec    %esp
 d60:	49                   	dec    %ecx
 d61:	42                   	inc    %edx
 d62:	43                   	inc    %ebx
 d63:	5f                   	pop    %edi
 d64:	32 2e                	xor    (%esi),%ch
 d66:	30 00                	xor    %al,(%eax)
 d68:	47                   	inc    %edi
 d69:	4c                   	dec    %esp
 d6a:	49                   	dec    %ecx
 d6b:	42                   	inc    %edx
 d6c:	43                   	inc    %ebx
 d6d:	5f                   	pop    %edi
 d6e:	32 2e                	xor    (%esi),%ch
 d70:	31 2e                	xor    %ebp,(%esi)
 d72:	33 00                	xor    (%eax),%eax
Desensamblado de la sección .gnu.version:

00000d74 <.gnu.version>:
	...
 d8c:	01 00                	add    %eax,(%eax)
 d8e:	02 00                	add    (%eax),%al
 d90:	01 00                	add    %eax,(%eax)
 d92:	01 00                	add    %eax,(%eax)
 d94:	02 00                	add    (%eax),%al
 d96:	03 00                	add    (%eax),%eax
 d98:	01 00                	add    %eax,(%eax)
 d9a:	03 00                	add    (%eax),%eax
 d9c:	03 00                	add    (%eax),%eax
 d9e:	01 00                	add    %eax,(%eax)
 da0:	01 00                	add    %eax,(%eax)
 da2:	03 00                	add    (%eax),%eax
 da4:	01 00                	add    %eax,(%eax)
 da6:	03 00                	add    (%eax),%eax
 da8:	01 00                	add    %eax,(%eax)
 daa:	03 00                	add    (%eax),%eax
 dac:	04 00                	add    $0x0,%al
 dae:	01 00                	add    %eax,(%eax)
 db0:	03 00                	add    (%eax),%eax
 db2:	01 00                	add    %eax,(%eax)
 db4:	01 00                	add    %eax,(%eax)
 db6:	01 00                	add    %eax,(%eax)
 db8:	01 00                	add    %eax,(%eax)
 dba:	01 00                	add    %eax,(%eax)
 dbc:	03 00                	add    (%eax),%eax
 dbe:	01 00                	add    %eax,(%eax)
 dc0:	03 00                	add    (%eax),%eax
 dc2:	01 00                	add    %eax,(%eax)
 dc4:	01 00                	add    %eax,(%eax)
 dc6:	01 00                	add    %eax,(%eax)
 dc8:	01 00                	add    %eax,(%eax)
 dca:	01 00                	add    %eax,(%eax)
 dcc:	03 00                	add    (%eax),%eax
 dce:	01 00                	add    %eax,(%eax)
 dd0:	03 00                	add    (%eax),%eax
 dd2:	01 00                	add    %eax,(%eax)
 dd4:	01 00                	add    %eax,(%eax)
 dd6:	01 00                	add    %eax,(%eax)
 dd8:	02 00                	add    (%eax),%al
 dda:	01 00                	add    %eax,(%eax)
 ddc:	03 00                	add    (%eax),%eax
 dde:	03 00                	add    (%eax),%eax
 de0:	01 00                	add    %eax,(%eax)
 de2:	01 00                	add    %eax,(%eax)
 de4:	03 00                	add    (%eax),%eax
 de6:	03 00                	add    (%eax),%eax
 de8:	03 00                	add    (%eax),%eax
 dea:	01 00                	add    %eax,(%eax)
 dec:	01 00                	add    %eax,(%eax)
 dee:	01 00                	add    %eax,(%eax)
 df0:	01 00                	add    %eax,(%eax)
 df2:	01 00                	add    %eax,(%eax)
 df4:	03 00                	add    (%eax),%eax
 df6:	01 00                	add    %eax,(%eax)
 df8:	01 00                	add    %eax,(%eax)
 dfa:	03 00                	add    (%eax),%eax
 dfc:	05 00 01 00 03       	add    $0x3000100,%eax
 e01:	00 04 00             	add    %al,(%eax,%eax,1)
 e04:	03 00                	add    (%eax),%eax
 e06:	01 00                	add    %eax,(%eax)
 e08:	01 00                	add    %eax,(%eax)
 e0a:	01 00                	add    %eax,(%eax)
 e0c:	01 00                	add    %eax,(%eax)
 e0e:	01 00                	add    %eax,(%eax)
 e10:	01 00                	add    %eax,(%eax)
 e12:	03 00                	add    (%eax),%eax
 e14:	03 00                	add    (%eax),%eax
 e16:	01 00                	add    %eax,(%eax)
 e18:	01 00                	add    %eax,(%eax)
 e1a:	03 00                	add    (%eax),%eax
 e1c:	00 00                	add    %al,(%eax)
 e1e:	01 00                	add    %eax,(%eax)
 e20:	01 00                	add    %eax,(%eax)
 e22:	01 00                	add    %eax,(%eax)
 e24:	01 00                	add    %eax,(%eax)
 e26:	01 00                	add    %eax,(%eax)
 e28:	03 00                	add    (%eax),%eax
 e2a:	03 00                	add    (%eax),%eax
 e2c:	00 00                	add    %al,(%eax)
 e2e:	06                   	push   %es
 e2f:	00 01                	add    %al,(%ecx)
	...
Desensamblado de la sección .gnu.version_r:

00000e34 <.gnu.version_r>:
 e34:	01 00                	add    %eax,(%eax)
 e36:	02 00                	add    (%eax),%al
 e38:	b3 03                	mov    $0x3,%bl
 e3a:	00 00                	add    %al,(%eax)
 e3c:	10 00                	adc    %al,(%eax)
 e3e:	00 00                	add    %al,(%eax)
 e40:	30 00                	xor    %al,(%eax)
 e42:	00 00                	add    %al,(%eax)
 e44:	11 69 69             	adc    %ebp,0x69(%ecx)
 e47:	0d 00 00 06 00       	or     $0x60000,%eax
 e4c:	e0 03                	loopne e51 <_init-0xc73>
 e4e:	00 00                	add    %al,(%eax)
 e50:	10 00                	adc    %al,(%eax)
 e52:	00 00                	add    %al,(%eax)
 e54:	10 69 69             	adc    %ch,0x69(%ecx)
 e57:	0d 00 00 04 00       	or     $0x40000,%eax
 e5c:	ea 03 00 00 00 00 00 	ljmp   $0x0,$0x3
 e63:	00 01                	add    %al,(%ecx)
 e65:	00 03                	add    %al,(%ebx)
 e67:	00 be 03 00 00 10    	add    %bh,0x10000003(%esi)
 e6d:	00 00                	add    %al,(%eax)
 e6f:	00 00                	add    %al,(%eax)
 e71:	00 00                	add    %al,(%eax)
 e73:	00 73 1f             	add    %dh,0x1f(%ebx)
 e76:	69 09 00 00 05 00    	imul   $0x50000,(%ecx),%ecx
 e7c:	f4                   	hlt    
 e7d:	03 00                	add    (%eax),%eax
 e7f:	00 10                	add    %dl,(%eax)
 e81:	00 00                	add    %al,(%eax)
 e83:	00 10                	add    %dl,(%eax)
 e85:	69 69 0d 00 00 03 00 	imul   $0x30000,0xd(%ecx),%ebp
 e8c:	ea 03 00 00 10 00 00 	ljmp   $0x0,$0x10000003
 e93:	00 11                	add    %dl,(%ecx)
 e95:	69 69 0d 00 00 02 00 	imul   $0x20000,0xd(%ecx),%ebp
 e9c:	e0 03                	loopne ea1 <_init-0xc23>
 e9e:	00 00                	add    %al,(%eax)
 ea0:	00 00                	add    %al,(%eax)
	...
Desensamblado de la sección .rel.dyn:

00000ea4 <.rel.dyn>:
     ea4:	3f                   	aas    
     ea5:	1d 00 00 08 00       	sbb    $0x80000,%eax
     eaa:	00 00                	add    %al,(%eax)
     eac:	ff 1d 00 00 08 00    	lcall  *0x80000
     eb2:	00 00                	add    %al,(%eax)
     eb4:	45                   	inc    %ebp
     eb5:	1e                   	push   %ds
     eb6:	00 00                	add    %al,(%eax)
     eb8:	08 00                	or     %al,(%eax)
     eba:	00 00                	add    %al,(%eax)
     ebc:	5c                   	pop    %esp
     ebd:	1e                   	push   %ds
     ebe:	00 00                	add    %al,(%eax)
     ec0:	08 00                	or     %al,(%eax)
     ec2:	00 00                	add    %al,(%eax)
     ec4:	87 1e                	xchg   %ebx,(%esi)
     ec6:	00 00                	add    %al,(%eax)
     ec8:	08 00                	or     %al,(%eax)
     eca:	00 00                	add    %al,(%eax)
     ecc:	9e                   	sahf   
     ecd:	1e                   	push   %ds
     ece:	00 00                	add    %al,(%eax)
     ed0:	08 00                	or     %al,(%eax)
     ed2:	00 00                	add    %al,(%eax)
     ed4:	ce                   	into   
     ed5:	1e                   	push   %ds
     ed6:	00 00                	add    %al,(%eax)
     ed8:	08 00                	or     %al,(%eax)
     eda:	00 00                	add    %al,(%eax)
     edc:	f1                   	icebp  
     edd:	1e                   	push   %ds
     ede:	00 00                	add    %al,(%eax)
     ee0:	08 00                	or     %al,(%eax)
     ee2:	00 00                	add    %al,(%eax)
     ee4:	1f                   	pop    %ds
     ee5:	1f                   	pop    %ds
     ee6:	00 00                	add    %al,(%eax)
     ee8:	08 00                	or     %al,(%eax)
     eea:	00 00                	add    %al,(%eax)
     eec:	c2 1f 00             	ret    $0x1f
     eef:	00 08                	add    %cl,(%eax)
     ef1:	00 00                	add    %al,(%eax)
     ef3:	00 ed                	add    %ch,%ch
     ef5:	1f                   	pop    %ds
     ef6:	00 00                	add    %al,(%eax)
     ef8:	08 00                	or     %al,(%eax)
     efa:	00 00                	add    %al,(%eax)
     efc:	b1 20                	mov    $0x20,%cl
     efe:	00 00                	add    %al,(%eax)
     f00:	08 00                	or     %al,(%eax)
     f02:	00 00                	add    %al,(%eax)
     f04:	06                   	push   %es
     f05:	22 00                	and    (%eax),%al
     f07:	00 08                	add    %cl,(%eax)
     f09:	00 00                	add    %al,(%eax)
     f0b:	00 8d 22 00 00 08    	add    %cl,0x8000022(%ebp)
     f11:	00 00                	add    %al,(%eax)
     f13:	00 bc 22 00 00 08 00 	add    %bh,0x80000(%edx)
     f1a:	00 00                	add    %al,(%eax)
     f1c:	13 23                	adc    (%ebx),%esp
     f1e:	00 00                	add    %al,(%eax)
     f20:	08 00                	or     %al,(%eax)
     f22:	00 00                	add    %al,(%eax)
     f24:	de 23                	fisub  (%ebx)
     f26:	00 00                	add    %al,(%eax)
     f28:	08 00                	or     %al,(%eax)
     f2a:	00 00                	add    %al,(%eax)
     f2c:	f9                   	stc    
     f2d:	23 00                	and    (%eax),%eax
     f2f:	00 08                	add    %cl,(%eax)
     f31:	00 00                	add    %al,(%eax)
     f33:	00 80 24 00 00 08    	add    %al,0x8000024(%eax)
     f39:	00 00                	add    %al,(%eax)
     f3b:	00 7e 25             	add    %bh,0x25(%esi)
     f3e:	00 00                	add    %al,(%eax)
     f40:	08 00                	or     %al,(%eax)
     f42:	00 00                	add    %al,(%eax)
     f44:	19 26                	sbb    %esp,(%esi)
     f46:	00 00                	add    %al,(%eax)
     f48:	08 00                	or     %al,(%eax)
     f4a:	00 00                	add    %al,(%eax)
     f4c:	5e                   	pop    %esi
     f4d:	29 00                	sub    %eax,(%eax)
     f4f:	00 08                	add    %cl,(%eax)
     f51:	00 00                	add    %al,(%eax)
     f53:	00 8b 2b 00 00 08    	add    %cl,0x800002b(%ebx)
     f59:	00 00                	add    %al,(%eax)
     f5b:	00 bc 2b 00 00 08 00 	add    %bh,0x80000(%ebx,%ebp,1)
     f62:	00 00                	add    %al,(%eax)
     f64:	d0 2b                	shrb   (%ebx)
     f66:	00 00                	add    %al,(%eax)
     f68:	08 00                	or     %al,(%eax)
     f6a:	00 00                	add    %al,(%eax)
     f6c:	e4 2b                	in     $0x2b,%al
     f6e:	00 00                	add    %al,(%eax)
     f70:	08 00                	or     %al,(%eax)
     f72:	00 00                	add    %al,(%eax)
     f74:	f8                   	clc    
     f75:	2b 00                	sub    (%eax),%eax
     f77:	00 08                	add    %cl,(%eax)
     f79:	00 00                	add    %al,(%eax)
     f7b:	00 0c 2c             	add    %cl,(%esp,%ebp,1)
     f7e:	00 00                	add    %al,(%eax)
     f80:	08 00                	or     %al,(%eax)
     f82:	00 00                	add    %al,(%eax)
     f84:	20 2c 00             	and    %ch,(%eax,%eax,1)
     f87:	00 08                	add    %cl,(%eax)
     f89:	00 00                	add    %al,(%eax)
     f8b:	00 10                	add    %dl,(%eax)
     f8d:	2d 00 00 08 00       	sub    $0x80000,%eax
     f92:	00 00                	add    %al,(%eax)
     f94:	20 2d 00 00 08 00    	and    %ch,0x80000
     f9a:	00 00                	add    %al,(%eax)
     f9c:	4e                   	dec    %esi
     f9d:	2d 00 00 08 00       	sub    $0x80000,%eax
     fa2:	00 00                	add    %al,(%eax)
     fa4:	88 2d 00 00 08 00    	mov    %ch,0x80000
     faa:	00 00                	add    %al,(%eax)
     fac:	a1 2d 00 00 08       	mov    0x800002d,%eax
     fb1:	00 00                	add    %al,(%eax)
     fb3:	00 71 2e             	add    %dh,0x2e(%ecx)
     fb6:	00 00                	add    %al,(%eax)
     fb8:	08 00                	or     %al,(%eax)
     fba:	00 00                	add    %al,(%eax)
     fbc:	34 30                	xor    $0x30,%al
     fbe:	00 00                	add    %al,(%eax)
     fc0:	08 00                	or     %al,(%eax)
     fc2:	00 00                	add    %al,(%eax)
     fc4:	6a 30                	push   $0x30
     fc6:	00 00                	add    %al,(%eax)
     fc8:	08 00                	or     %al,(%eax)
     fca:	00 00                	add    %al,(%eax)
     fcc:	8d 30                	lea    (%eax),%esi
     fce:	00 00                	add    %al,(%eax)
     fd0:	08 00                	or     %al,(%eax)
     fd2:	00 00                	add    %al,(%eax)
     fd4:	bc 30 00 00 08       	mov    $0x8000030,%esp
     fd9:	00 00                	add    %al,(%eax)
     fdb:	00 80 31 00 00 08    	add    %al,0x8000031(%eax)
     fe1:	00 00                	add    %al,(%eax)
     fe3:	00 41 32             	add    %al,0x32(%ecx)
     fe6:	00 00                	add    %al,(%eax)
     fe8:	08 00                	or     %al,(%eax)
     fea:	00 00                	add    %al,(%eax)
     fec:	77 32                	ja     1020 <_init-0xaa4>
     fee:	00 00                	add    %al,(%eax)
     ff0:	08 00                	or     %al,(%eax)
     ff2:	00 00                	add    %al,(%eax)
     ff4:	7d 32                	jge    1028 <_init-0xa9c>
     ff6:	00 00                	add    %al,(%eax)
     ff8:	08 00                	or     %al,(%eax)
     ffa:	00 00                	add    %al,(%eax)
     ffc:	26                   	es
     ffd:	34 00                	xor    $0x0,%al
     fff:	00 08                	add    %cl,(%eax)
    1001:	00 00                	add    %al,(%eax)
    1003:	00 af 35 00 00 08    	add    %ch,0x8000035(%edi)
    1009:	00 00                	add    %al,(%eax)
    100b:	00 b9 35 00 00 08    	add    %bh,0x8000035(%ecx)
    1011:	00 00                	add    %al,(%eax)
    1013:	00 74 36 00          	add    %dh,0x0(%esi,%esi,1)
    1017:	00 08                	add    %cl,(%eax)
    1019:	00 00                	add    %al,(%eax)
    101b:	00 9c 36 00 00 08 00 	add    %bl,0x80000(%esi,%esi,1)
    1022:	00 00                	add    %al,(%eax)
    1024:	a8 36                	test   $0x36,%al
    1026:	00 00                	add    %al,(%eax)
    1028:	08 00                	or     %al,(%eax)
    102a:	00 00                	add    %al,(%eax)
    102c:	d9 36                	fnstenv (%esi)
    102e:	00 00                	add    %al,(%eax)
    1030:	08 00                	or     %al,(%eax)
    1032:	00 00                	add    %al,(%eax)
    1034:	f9                   	stc    
    1035:	36 00 00             	add    %al,%ss:(%eax)
    1038:	08 00                	or     %al,(%eax)
    103a:	00 00                	add    %al,(%eax)
    103c:	1f                   	pop    %ds
    103d:	37                   	aaa    
    103e:	00 00                	add    %al,(%eax)
    1040:	08 00                	or     %al,(%eax)
    1042:	00 00                	add    %al,(%eax)
    1044:	72 37                	jb     107d <_init-0xa47>
    1046:	00 00                	add    %al,(%eax)
    1048:	08 00                	or     %al,(%eax)
    104a:	00 00                	add    %al,(%eax)
    104c:	dc 37                	fdivl  (%edi)
    104e:	00 00                	add    %al,(%eax)
    1050:	08 00                	or     %al,(%eax)
    1052:	00 00                	add    %al,(%eax)
    1054:	74 38                	je     108e <_init-0xa36>
    1056:	00 00                	add    %al,(%eax)
    1058:	08 00                	or     %al,(%eax)
    105a:	00 00                	add    %al,(%eax)
    105c:	f5                   	cmc    
    105d:	38 00                	cmp    %al,(%eax)
    105f:	00 08                	add    %cl,(%eax)
    1061:	00 00                	add    %al,(%eax)
    1063:	00 e1                	add    %ah,%cl
    1065:	3a 00                	cmp    (%eax),%al
    1067:	00 08                	add    %cl,(%eax)
    1069:	00 00                	add    %al,(%eax)
    106b:	00 44 3b 00          	add    %al,0x0(%ebx,%edi,1)
    106f:	00 08                	add    %cl,(%eax)
    1071:	00 00                	add    %al,(%eax)
    1073:	00 80 3b 00 00 08    	add    %al,0x800003b(%eax)
    1079:	00 00                	add    %al,(%eax)
    107b:	00 c1                	add    %al,%cl
    107d:	3b 00                	cmp    (%eax),%eax
    107f:	00 08                	add    %cl,(%eax)
    1081:	00 00                	add    %al,(%eax)
    1083:	00 e0                	add    %ah,%al
    1085:	53                   	push   %ebx
    1086:	00 00                	add    %al,(%eax)
    1088:	08 00                	or     %al,(%eax)
    108a:	00 00                	add    %al,(%eax)
    108c:	e4 53                	in     $0x53,%al
    108e:	00 00                	add    %al,(%eax)
    1090:	08 00                	or     %al,(%eax)
    1092:	00 00                	add    %al,(%eax)
    1094:	f0 1b 00             	lock sbb (%eax),%eax
    1097:	00 01                	add    %al,(%ecx)
    1099:	4e                   	dec    %esi
    109a:	00 00                	add    %al,(%eax)
    109c:	27                   	daa    
    109d:	1c 00                	sbb    $0x0,%al
    109f:	00 01                	add    %al,(%ecx)
    10a1:	4e                   	dec    %esi
    10a2:	00 00                	add    %al,(%eax)
    10a4:	f8                   	clc    
    10a5:	20 00                	and    %al,(%eax)
    10a7:	00 01                	add    %al,(%ecx)
    10a9:	4e                   	dec    %esi
    10aa:	00 00                	add    %al,(%eax)
    10ac:	44                   	inc    %esp
    10ad:	1d 00 00 02 36       	sbb    $0x36020000,%eax
    10b2:	00 00                	add    %al,(%eax)
    10b4:	04 1e                	add    $0x1e,%al
    10b6:	00 00                	add    %al,(%eax)
    10b8:	02 36                	add    (%esi),%dh
    10ba:	00 00                	add    %al,(%eax)
    10bc:	61                   	popa   
    10bd:	1e                   	push   %ds
    10be:	00 00                	add    %al,(%eax)
    10c0:	02 36                	add    (%esi),%dh
    10c2:	00 00                	add    %al,(%eax)
    10c4:	a3 1e 00 00 02       	mov    %eax,0x200001e
    10c9:	36 00 00             	add    %al,%ss:(%eax)
    10cc:	d3 1e                	rcrl   %cl,(%esi)
    10ce:	00 00                	add    %al,(%eax)
    10d0:	02 36                	add    (%esi),%dh
    10d2:	00 00                	add    %al,(%eax)
    10d4:	f6 1e                	negb   (%esi)
    10d6:	00 00                	add    %al,(%eax)
    10d8:	02 36                	add    (%esi),%dh
    10da:	00 00                	add    %al,(%eax)
    10dc:	24 1f                	and    $0x1f,%al
    10de:	00 00                	add    %al,(%eax)
    10e0:	02 36                	add    (%esi),%dh
    10e2:	00 00                	add    %al,(%eax)
    10e4:	c7 1f 00 00 02 36    	movl   $0x36020000,(%edi)
    10ea:	00 00                	add    %al,(%eax)
    10ec:	f2 1f                	repnz pop %ds
    10ee:	00 00                	add    %al,(%eax)
    10f0:	02 36                	add    (%esi),%dh
    10f2:	00 00                	add    %al,(%eax)
    10f4:	b6 20                	mov    $0x20,%dh
    10f6:	00 00                	add    %al,(%eax)
    10f8:	02 36                	add    (%esi),%dh
    10fa:	00 00                	add    %al,(%eax)
    10fc:	0b 22                	or     (%edx),%esp
    10fe:	00 00                	add    %al,(%eax)
    1100:	02 36                	add    (%esi),%dh
    1102:	00 00                	add    %al,(%eax)
    1104:	92                   	xchg   %eax,%edx
    1105:	22 00                	and    (%eax),%al
    1107:	00 02                	add    %al,(%edx)
    1109:	36 00 00             	add    %al,%ss:(%eax)
    110c:	c1 22 00             	shll   $0x0,(%edx)
    110f:	00 02                	add    %al,(%edx)
    1111:	36 00 00             	add    %al,%ss:(%eax)
    1114:	18 23                	sbb    %ah,(%ebx)
    1116:	00 00                	add    %al,(%eax)
    1118:	02 36                	add    (%esi),%dh
    111a:	00 00                	add    %al,(%eax)
    111c:	e3 23                	jecxz  1141 <_init-0x983>
    111e:	00 00                	add    %al,(%eax)
    1120:	02 36                	add    (%esi),%dh
    1122:	00 00                	add    %al,(%eax)
    1124:	fe                   	(bad)  
    1125:	23 00                	and    (%eax),%eax
    1127:	00 02                	add    %al,(%edx)
    1129:	36 00 00             	add    %al,%ss:(%eax)
    112c:	85 24 00             	test   %esp,(%eax,%eax,1)
    112f:	00 02                	add    %al,(%edx)
    1131:	36 00 00             	add    %al,%ss:(%eax)
    1134:	83 25 00 00 02 36 00 	andl   $0x0,0x36020000
    113b:	00 1e                	add    %bl,(%esi)
    113d:	26 00 00             	add    %al,%es:(%eax)
    1140:	02 36                	add    (%esi),%dh
    1142:	00 00                	add    %al,(%eax)
    1144:	63 29                	arpl   %bp,(%ecx)
    1146:	00 00                	add    %al,(%eax)
    1148:	02 36                	add    (%esi),%dh
    114a:	00 00                	add    %al,(%eax)
    114c:	90                   	nop    
    114d:	2b 00                	sub    (%eax),%eax
    114f:	00 02                	add    %al,(%edx)
    1151:	36 00 00             	add    %al,%ss:(%eax)
    1154:	50                   	push   %eax
    1155:	1d 00 00 02 33       	sbb    $0x33020000,%eax
    115a:	00 00                	add    %al,(%eax)
    115c:	63 1d 00 00 02 33    	arpl   %bx,0x33020000
    1162:	00 00                	add    %al,(%eax)
    1164:	9a 1d 00 00 02 33 00 	lcall  $0x33,$0x200001d
    116b:	00 f1                	add    %dh,%cl
    116d:	21 00                	and    %eax,(%eax)
    116f:	00 02                	add    %al,(%edx)
    1171:	33 00                	xor    (%eax),%eax
    1173:	00 33                	add    %dh,(%ebx)
    1175:	22 00                	and    (%eax),%al
    1177:	00 02                	add    %al,(%edx)
    1179:	33 00                	xor    (%eax),%eax
    117b:	00 24 23             	add    %ah,(%ebx)
    117e:	00 00                	add    %al,(%eax)
    1180:	02 33                	add    (%ebx),%dh
    1182:	00 00                	add    %al,(%eax)
    1184:	c5 23                	lds    (%ebx),%esp
    1186:	00 00                	add    %al,(%eax)
    1188:	02 33                	add    (%ebx),%dh
    118a:	00 00                	add    %al,(%eax)
    118c:	40                   	inc    %eax
    118d:	24 00                	and    $0x0,%al
    118f:	00 02                	add    %al,(%edx)
    1191:	33 00                	xor    (%eax),%eax
    1193:	00 3c 2e             	add    %bh,(%esi,%ebp,1)
    1196:	00 00                	add    %al,(%eax)
    1198:	02 33                	add    (%ebx),%dh
    119a:	00 00                	add    %al,(%eax)
    119c:	cc                   	int3   
    119d:	2e 00 00             	add    %al,%cs:(%eax)
    11a0:	02 33                	add    (%ebx),%dh
    11a2:	00 00                	add    %al,(%eax)
    11a4:	f5                   	cmc    
    11a5:	2e 00 00             	add    %al,%cs:(%eax)
    11a8:	02 33                	add    (%ebx),%dh
    11aa:	00 00                	add    %al,(%eax)
    11ac:	2f                   	das    
    11ad:	36 00 00             	add    %al,%ss:(%eax)
    11b0:	02 33                	add    (%ebx),%dh
    11b2:	00 00                	add    %al,(%eax)
    11b4:	6b 36 00             	imul   $0x0,(%esi),%esi
    11b7:	00 02                	add    %al,(%edx)
    11b9:	33 00                	xor    (%eax),%eax
    11bb:	00 8b 36 00 00 02    	add    %cl,0x2000036(%ebx)
    11c1:	33 00                	xor    (%eax),%eax
    11c3:	00 58 1d             	add    %bl,0x1d(%eax)
    11c6:	00 00                	add    %al,(%eax)
    11c8:	02 4d 00             	add    0x0(%ebp),%cl
    11cb:	00 77 1d             	add    %dh,0x1d(%edi)
    11ce:	00 00                	add    %al,(%eax)
    11d0:	01 58 00             	add    %ebx,0x0(%eax)
    11d3:	00 80 1d 00 00 01    	add    %al,0x100001d(%eax)
    11d9:	58                   	pop    %eax
    11da:	00 00                	add    %al,(%eax)
    11dc:	8c 1d 00 00 01 58    	movl   %ds,0x58010000
    11e2:	00 00                	add    %al,(%eax)
    11e4:	9f                   	lahf   
    11e5:	1d 00 00 01 58       	sbb    $0x58010000,%eax
    11ea:	00 00                	add    %al,(%eax)
    11ec:	cd 1d                	int    $0x1d
    11ee:	00 00                	add    %al,(%eax)
    11f0:	01 58 00             	add    %ebx,0x0(%eax)
    11f3:	00 13                	add    %dl,(%ebx)
    11f5:	20 00                	and    %al,(%eax)
    11f7:	00 01                	add    %al,(%ecx)
    11f9:	58                   	pop    %eax
    11fa:	00 00                	add    %al,(%eax)
    11fc:	bb 21 00 00 01       	mov    $0x1000021,%ebx
    1201:	58                   	pop    %eax
    1202:	00 00                	add    %al,(%eax)
    1204:	69 23 00 00 01 58    	imul   $0x58010000,(%ebx),%esp
    120a:	00 00                	add    %al,(%eax)
    120c:	a4                   	movsb  %ds:(%esi),%es:(%edi)
    120d:	27                   	daa    
    120e:	00 00                	add    %al,(%eax)
    1210:	01 58 00             	add    %ebx,0x0(%eax)
    1213:	00 fa                	add    %bh,%dl
    1215:	28 00                	sub    %al,(%eax)
    1217:	00 01                	add    %al,(%ecx)
    1219:	58                   	pop    %eax
    121a:	00 00                	add    %al,(%eax)
    121c:	36 2b 00             	sub    %ss:(%eax),%eax
    121f:	00 01                	add    %al,(%ecx)
    1221:	58                   	pop    %eax
    1222:	00 00                	add    %al,(%eax)
    1224:	ac                   	lods   %ds:(%esi),%al
    1225:	1d 00 00 01 55       	sbb    $0x55010000,%eax
    122a:	00 00                	add    %al,(%eax)
    122c:	bf 1d 00 00 01       	mov    $0x100001d,%edi
    1231:	55                   	push   %ebp
    1232:	00 00                	add    %al,(%eax)
    1234:	d7                   	xlat   %ds:(%ebx)
    1235:	1d 00 00 01 55       	sbb    $0x55010000,%eax
    123a:	00 00                	add    %al,(%eax)
    123c:	e4 1d                	in     $0x1d,%al
    123e:	00 00                	add    %al,(%eax)
    1240:	01 55 00             	add    %edx,0x0(%ebp)
    1243:	00 e9                	add    %ch,%cl
    1245:	1d 00 00 01 55       	sbb    $0x55010000,%eax
    124a:	00 00                	add    %al,(%eax)
    124c:	1a 1e                	sbb    (%esi),%bl
    124e:	00 00                	add    %al,(%eax)
    1250:	01 55 00             	add    %edx,0x0(%ebp)
    1253:	00 4f 1e             	add    %cl,0x1e(%edi)
    1256:	00 00                	add    %al,(%eax)
    1258:	01 55 00             	add    %edx,0x0(%ebp)
    125b:	00 91 1e 00 00 01    	add    %dl,0x100001e(%ecx)
    1261:	55                   	push   %ebp
    1262:	00 00                	add    %al,(%eax)
    1264:	fb                   	sti    
    1265:	1e                   	push   %ds
    1266:	00 00                	add    %al,(%eax)
    1268:	01 55 00             	add    %edx,0x0(%ebp)
    126b:	00 04 1f             	add    %al,(%edi,%ebx,1)
    126e:	00 00                	add    %al,(%eax)
    1270:	01 55 00             	add    %edx,0x0(%ebp)
    1273:	00 11                	add    %dl,(%ecx)
    1275:	1f                   	pop    %ds
    1276:	00 00                	add    %al,(%eax)
    1278:	01 55 00             	add    %edx,0x0(%ebp)
    127b:	00 32                	add    %dh,(%edx)
    127d:	1f                   	pop    %ds
    127e:	00 00                	add    %al,(%eax)
    1280:	01 55 00             	add    %edx,0x0(%ebp)
    1283:	00 46 1f             	add    %al,0x1f(%esi)
    1286:	00 00                	add    %al,(%eax)
    1288:	01 55 00             	add    %edx,0x0(%ebp)
    128b:	00 f9                	add    %bh,%cl
    128d:	21 00                	and    %eax,(%eax)
    128f:	00 01                	add    %al,(%ecx)
    1291:	55                   	push   %ebp
    1292:	00 00                	add    %al,(%eax)
    1294:	80 22 00             	andb   $0x0,(%edx)
    1297:	00 01                	add    %al,(%ecx)
    1299:	55                   	push   %ebp
    129a:	00 00                	add    %al,(%eax)
    129c:	a9 22 00 00 01       	test   $0x1000022,%eax
    12a1:	55                   	push   %ebp
    12a2:	00 00                	add    %al,(%eax)
    12a4:	2d 23 00 00 01       	sub    $0x1000023,%eax
    12a9:	55                   	push   %ebp
    12aa:	00 00                	add    %al,(%eax)
    12ac:	3c 23                	cmp    $0x23,%al
    12ae:	00 00                	add    %al,(%eax)
    12b0:	01 55 00             	add    %edx,0x0(%ebp)
    12b3:	00 4a 23             	add    %cl,0x23(%edx)
    12b6:	00 00                	add    %al,(%eax)
    12b8:	01 55 00             	add    %edx,0x0(%ebp)
    12bb:	00 56 23             	add    %dl,0x23(%esi)
    12be:	00 00                	add    %al,(%eax)
    12c0:	01 55 00             	add    %edx,0x0(%ebp)
    12c3:	00 5e 23             	add    %bl,0x23(%esi)
    12c6:	00 00                	add    %al,(%eax)
    12c8:	01 55 00             	add    %edx,0x0(%ebp)
    12cb:	00 73 23             	add    %dh,0x23(%ebx)
    12ce:	00 00                	add    %al,(%eax)
    12d0:	01 55 00             	add    %edx,0x0(%ebp)
    12d3:	00 8d 23 00 00 01    	add    %cl,0x1000023(%ebp)
    12d9:	55                   	push   %ebp
    12da:	00 00                	add    %al,(%eax)
    12dc:	92                   	xchg   %eax,%edx
    12dd:	23 00                	and    (%eax),%eax
    12df:	00 01                	add    %al,(%ecx)
    12e1:	55                   	push   %ebp
    12e2:	00 00                	add    %al,(%eax)
    12e4:	0f                   	mov    %tr0,(bad)
    12e5:	24 00                	and    $0x0,%al
    12e7:	00 01                	add    %al,(%ecx)
    12e9:	55                   	push   %ebp
    12ea:	00 00                	add    %al,(%eax)
    12ec:	1f                   	pop    %ds
    12ed:	24 00                	and    $0x0,%al
    12ef:	00 01                	add    %al,(%ecx)
    12f1:	55                   	push   %ebp
    12f2:	00 00                	add    %al,(%eax)
    12f4:	9c                   	pushf  
    12f5:	26 00 00             	add    %al,%es:(%eax)
    12f8:	01 55 00             	add    %edx,0x0(%ebp)
    12fb:	00 e2                	add    %ah,%dl
    12fd:	26 00 00             	add    %al,%es:(%eax)
    1300:	01 55 00             	add    %edx,0x0(%ebp)
    1303:	00 46 27             	add    %al,0x27(%esi)
    1306:	00 00                	add    %al,(%eax)
    1308:	01 55 00             	add    %edx,0x0(%ebp)
    130b:	00 5d 27             	add    %bl,0x27(%ebp)
    130e:	00 00                	add    %al,(%eax)
    1310:	01 55 00             	add    %edx,0x0(%ebp)
    1313:	00 85 27 00 00 01    	add    %al,0x1000027(%ebp)
    1319:	55                   	push   %ebp
    131a:	00 00                	add    %al,(%eax)
    131c:	91                   	xchg   %eax,%ecx
    131d:	27                   	daa    
    131e:	00 00                	add    %al,(%eax)
    1320:	01 55 00             	add    %edx,0x0(%ebp)
    1323:	00 99 27 00 00 01    	add    %bl,0x1000027(%ecx)
    1329:	55                   	push   %ebp
    132a:	00 00                	add    %al,(%eax)
    132c:	b3 27                	mov    $0x27,%bl
    132e:	00 00                	add    %al,(%eax)
    1330:	01 55 00             	add    %edx,0x0(%ebp)
    1333:	00 b8 27 00 00 01    	add    %bh,0x1000027(%eax)
    1339:	55                   	push   %ebp
    133a:	00 00                	add    %al,(%eax)
    133c:	72 28                	jb     1366 <_init-0x75e>
    133e:	00 00                	add    %al,(%eax)
    1340:	01 55 00             	add    %edx,0x0(%ebp)
    1343:	00 b3 28 00 00 01    	add    %dh,0x1000028(%ebx)
    1349:	55                   	push   %ebp
    134a:	00 00                	add    %al,(%eax)
    134c:	db 28                	fldt   (%eax)
    134e:	00 00                	add    %al,(%eax)
    1350:	01 55 00             	add    %edx,0x0(%ebp)
    1353:	00 e7                	add    %ah,%bh
    1355:	28 00                	sub    %al,(%eax)
    1357:	00 01                	add    %al,(%ecx)
    1359:	55                   	push   %ebp
    135a:	00 00                	add    %al,(%eax)
    135c:	ef                   	out    %eax,(%dx)
    135d:	28 00                	sub    %al,(%eax)
    135f:	00 01                	add    %al,(%ecx)
    1361:	55                   	push   %ebp
    1362:	00 00                	add    %al,(%eax)
    1364:	09 29                	or     %ebp,(%ecx)
    1366:	00 00                	add    %al,(%eax)
    1368:	01 55 00             	add    %edx,0x0(%ebp)
    136b:	00 0e                	add    %cl,(%esi)
    136d:	29 00                	sub    %eax,(%eax)
    136f:	00 01                	add    %al,(%ecx)
    1371:	55                   	push   %ebp
    1372:	00 00                	add    %al,(%eax)
    1374:	c9                   	leave  
    1375:	29 00                	sub    %eax,(%eax)
    1377:	00 01                	add    %al,(%ecx)
    1379:	55                   	push   %ebp
    137a:	00 00                	add    %al,(%eax)
    137c:	ef                   	out    %eax,(%dx)
    137d:	2a 00                	sub    (%eax),%al
    137f:	00 01                	add    %al,(%ecx)
    1381:	55                   	push   %ebp
    1382:	00 00                	add    %al,(%eax)
    1384:	17                   	pop    %ss
    1385:	2b 00                	sub    (%eax),%eax
    1387:	00 01                	add    %al,(%ecx)
    1389:	55                   	push   %ebp
    138a:	00 00                	add    %al,(%eax)
    138c:	23 2b                	and    (%ebx),%ebp
    138e:	00 00                	add    %al,(%eax)
    1390:	01 55 00             	add    %edx,0x0(%ebp)
    1393:	00 2b                	add    %ch,(%ebx)
    1395:	2b 00                	sub    (%eax),%eax
    1397:	00 01                	add    %al,(%ecx)
    1399:	55                   	push   %ebp
    139a:	00 00                	add    %al,(%eax)
    139c:	45                   	inc    %ebp
    139d:	2b 00                	sub    (%eax),%eax
    139f:	00 01                	add    %al,(%ecx)
    13a1:	55                   	push   %ebp
    13a2:	00 00                	add    %al,(%eax)
    13a4:	4a                   	dec    %edx
    13a5:	2b 00                	sub    (%eax),%eax
    13a7:	00 01                	add    %al,(%ecx)
    13a9:	55                   	push   %ebp
    13aa:	00 00                	add    %al,(%eax)
    13ac:	2f                   	das    
    13ad:	2d 00 00 01 55       	sub    $0x55010000,%eax
    13b2:	00 00                	add    %al,(%eax)
    13b4:	34 2d                	xor    $0x2d,%al
    13b6:	00 00                	add    %al,(%eax)
    13b8:	01 55 00             	add    %edx,0x0(%ebp)
    13bb:	00 ba 1d 00 00 02    	add    %bh,0x200001d(%edx)
    13c1:	0e                   	push   %cs
    13c2:	00 00                	add    %al,(%eax)
    13c4:	15 1e 00 00 02       	adc    $0x200001e,%eax
    13c9:	31 00                	xor    %eax,(%eax)
    13cb:	00 2d 1e 00 00 02    	add    %ch,0x200001e
    13d1:	2f                   	das    
    13d2:	00 00                	add    %al,(%eax)
    13d4:	a7                   	cmpsl  %es:(%edi),%ds:(%esi)
    13d5:	23 00                	and    (%eax),%eax
    13d7:	00 02                	add    %al,(%edx)
    13d9:	2f                   	das    
    13da:	00 00                	add    %al,(%eax)
    13dc:	cd 27                	int    $0x27
    13de:	00 00                	add    %al,(%eax)
    13e0:	02 2f                	add    (%edi),%ch
    13e2:	00 00                	add    %al,(%eax)
    13e4:	23 29                	and    (%ecx),%ebp
    13e6:	00 00                	add    %al,(%eax)
    13e8:	02 2f                	add    (%edi),%ch
    13ea:	00 00                	add    %al,(%eax)
    13ec:	5f                   	pop    %edi
    13ed:	2b 00                	sub    (%eax),%eax
    13ef:	00 02                	add    %al,(%edx)
    13f1:	2f                   	das    
    13f2:	00 00                	add    %al,(%eax)
    13f4:	47                   	inc    %edi
    13f5:	2d 00 00 02 2f       	sub    $0x2f020000,%eax
    13fa:	00 00                	add    %al,(%eax)
    13fc:	3a 1e                	cmp    (%esi),%bl
    13fe:	00 00                	add    %al,(%eax)
    1400:	02 41 00             	add    0x0(%ecx),%al
    1403:	00 73 1e             	add    %dh,0x1e(%ebx)
    1406:	00 00                	add    %al,(%eax)
    1408:	02 41 00             	add    0x0(%ecx),%al
    140b:	00 29                	add    %ch,(%ecx)
    140d:	1f                   	pop    %ds
    140e:	00 00                	add    %al,(%eax)
    1410:	02 41 00             	add    0x0(%ecx),%al
    1413:	00 4a 1e             	add    %cl,0x1e(%edx)
    1416:	00 00                	add    %al,(%eax)
    1418:	02 2d 00 00 8c 1e    	add    0x1e8c0000,%ch
    141e:	00 00                	add    %al,(%eax)
    1420:	02 2d 00 00 25 2d    	add    0x2d250000,%ch
    1426:	00 00                	add    %al,(%eax)
    1428:	02 2d 00 00 53 2d    	add    0x2d530000,%ch
    142e:	00 00                	add    %al,(%eax)
    1430:	02 2d 00 00 8d 2d    	add    0x2d8d0000,%ch
    1436:	00 00                	add    %al,(%eax)
    1438:	02 2d 00 00 ad 36    	add    0x36ad0000,%ch
    143e:	00 00                	add    %al,(%eax)
    1440:	02 2d 00 00 7c 1e    	add    0x1e7c0000,%ch
    1446:	00 00                	add    %al,(%eax)
    1448:	01 16                	add    %edx,(%esi)
    144a:	00 00                	add    %al,(%eax)
    144c:	06                   	push   %es
    144d:	24 00                	and    $0x0,%al
    144f:	00 01                	add    %al,(%ecx)
    1451:	16                   	push   %ss
    1452:	00 00                	add    %al,(%eax)
    1454:	31 24 00             	xor    %esp,(%eax,%eax,1)
    1457:	00 01                	add    %al,(%ecx)
    1459:	16                   	push   %ss
    145a:	00 00                	add    %al,(%eax)
    145c:	bc 1e 00 00 02       	mov    $0x200001e,%esp
    1461:	42                   	inc    %edx
    1462:	00 00                	add    %al,(%eax)
    1464:	e7 1e                	out    %eax,$0x1e
    1466:	00 00                	add    %al,(%eax)
    1468:	01 37                	add    %esi,(%edi)
    146a:	00 00                	add    %al,(%eax)
    146c:	00 20                	add    %ah,(%eax)
    146e:	00 00                	add    %al,(%eax)
    1470:	01 37                	add    %esi,(%edi)
    1472:	00 00                	add    %al,(%eax)
    1474:	7e 23                	jle    1499 <_init-0x62b>
    1476:	00 00                	add    %al,(%eax)
    1478:	01 37                	add    %esi,(%edi)
    147a:	00 00                	add    %al,(%eax)
    147c:	58                   	pop    %eax
    147d:	1f                   	pop    %ds
    147e:	00 00                	add    %al,(%eax)
    1480:	01 0c 00             	add    %ecx,(%eax,%eax,1)
    1483:	00 5e 1f             	add    %bl,0x1f(%esi)
    1486:	00 00                	add    %al,(%eax)
    1488:	01 0c 00             	add    %ecx,(%eax,%eax,1)
    148b:	00 ee                	add    %ch,%dh
    148d:	23 00                	and    (%eax),%eax
    148f:	00 01                	add    %al,(%ecx)
    1491:	0c 00                	or     $0x0,%al
    1493:	00 45 24             	add    %al,0x24(%ebp)
    1496:	00 00                	add    %al,(%eax)
    1498:	01 0c 00             	add    %ecx,(%eax,%eax,1)
    149b:	00 6e 20             	add    %ch,0x20(%esi)
    149e:	00 00                	add    %al,(%eax)
    14a0:	02 2b                	add    (%ebx),%ch
    14a2:	00 00                	add    %al,(%eax)
    14a4:	17                   	pop    %ss
    14a5:	22 00                	and    (%eax),%al
    14a7:	00 02                	add    %al,(%edx)
    14a9:	2b 00                	sub    (%eax),%eax
    14ab:	00 4a 22             	add    %cl,0x22(%edx)
    14ae:	00 00                	add    %al,(%eax)
    14b0:	02 2b                	add    (%ebx),%ch
    14b2:	00 00                	add    %al,(%eax)
    14b4:	59                   	pop    %ecx
    14b5:	22 00                	and    (%eax),%al
    14b7:	00 02                	add    %al,(%edx)
    14b9:	2b 00                	sub    (%eax),%eax
    14bb:	00 d8                	add    %bl,%al
    14bd:	22 00                	and    (%eax),%al
    14bf:	00 02                	add    %al,(%edx)
    14c1:	2b 00                	sub    (%eax),%eax
    14c3:	00 d4                	add    %dl,%ah
    14c5:	23 00                	and    (%eax),%eax
    14c7:	00 02                	add    %al,(%edx)
    14c9:	2b 00                	sub    (%eax),%eax
    14cb:	00 59 24             	add    %bl,0x24(%ecx)
    14ce:	00 00                	add    %al,(%eax)
    14d0:	02 2b                	add    (%ebx),%ch
    14d2:	00 00                	add    %al,(%eax)
    14d4:	68 24 00 00 02       	push   $0x2000024
    14d9:	2b 00                	sub    (%eax),%eax
    14db:	00 74 25 00          	add    %dh,0x0(%ebp)
    14df:	00 02                	add    %al,(%edx)
    14e1:	2b 00                	sub    (%eax),%eax
    14e3:	00 0f                	add    %cl,(%edi)
    14e5:	26 00 00             	add    %al,%es:(%eax)
    14e8:	02 2b                	add    (%ebx),%ch
    14ea:	00 00                	add    %al,(%eax)
    14ec:	54                   	push   %esp
    14ed:	29 00                	sub    %eax,(%eax)
    14ef:	00 02                	add    %al,(%edx)
    14f1:	2b 00                	sub    (%eax),%eax
    14f3:	00 81 2b 00 00 02    	add    %al,0x200002b(%ecx)
    14f9:	2b 00                	sub    (%eax),%eax
    14fb:	00 81 20 00 00 01    	add    %al,0x1000020(%ecx)
    1501:	1f                   	pop    %ds
    1502:	00 00                	add    %al,(%eax)
    1504:	a2 20 00 00 02       	mov    %al,0x2000020
    1509:	20 00                	and    %al,(%eax)
    150b:	00 0d 21 00 00 02    	add    %cl,0x2000021
    1511:	56                   	push   %esi
    1512:	00 00                	add    %al,(%eax)
    1514:	32 21                	xor    (%ecx),%ah
    1516:	00 00                	add    %al,(%eax)
    1518:	02 49 00             	add    0x0(%ecx),%cl
    151b:	00 74 21 00          	add    %dh,0x0(%ecx)
    151f:	00 02                	add    %al,(%edx)
    1521:	23 00                	and    (%eax),%eax
    1523:	00 6e 22             	add    %ch,0x22(%esi)
    1526:	00 00                	add    %al,(%eax)
    1528:	02 51 00             	add    0x0(%ecx),%dl
    152b:	00 10                	add    %dl,(%eax)
    152d:	2e 00 00             	add    %al,%cs:(%eax)
    1530:	02 51 00             	add    0x0(%ecx),%dl
    1533:	00 9c 24 00 00 01 30 	add    %bl,0x30010000(%esp)
    153a:	00 00                	add    %al,(%eax)
    153c:	d5 24                	aad    $0x24
    153e:	00 00                	add    %al,(%eax)
    1540:	01 30                	add    %esi,(%eax)
    1542:	00 00                	add    %al,(%eax)
    1544:	f6 24 00             	mulb   (%eax,%eax,1)
    1547:	00 01                	add    %al,(%ecx)
    1549:	30 00                	xor    %al,(%eax)
    154b:	00 2a                	add    %ch,(%edx)
    154d:	25 00 00 01 30       	and    $0x30010000,%eax
    1552:	00 00                	add    %al,(%eax)
    1554:	97                   	xchg   %eax,%edi
    1555:	25 00 00 01 30       	and    $0x30010000,%eax
    155a:	00 00                	add    %al,(%eax)
    155c:	43                   	inc    %ebx
    155d:	26 00 00             	add    %al,%es:(%eax)
    1560:	01 30                	add    %esi,(%eax)
    1562:	00 00                	add    %al,(%eax)
    1564:	64 26 00 00          	add    %al,%es:%fs:(%eax)
    1568:	01 30                	add    %esi,(%eax)
    156a:	00 00                	add    %al,(%eax)
    156c:	7b 26                	jnp    1594 <_init-0x530>
    156e:	00 00                	add    %al,(%eax)
    1570:	01 30                	add    %esi,(%eax)
    1572:	00 00                	add    %al,(%eax)
    1574:	8e 26                	movl   (%esi),%fs
    1576:	00 00                	add    %al,(%eax)
    1578:	01 30                	add    %esi,(%eax)
    157a:	00 00                	add    %al,(%eax)
    157c:	ac                   	lods   %ds:(%esi),%al
    157d:	26 00 00             	add    %al,%es:(%eax)
    1580:	01 30                	add    %esi,(%eax)
    1582:	00 00                	add    %al,(%eax)
    1584:	bf 26 00 00 01       	mov    $0x1000026,%edi
    1589:	30 00                	xor    %al,(%eax)
    158b:	00 dd                	add    %bl,%ch
    158d:	26 00 00             	add    %al,%es:(%eax)
    1590:	01 30                	add    %esi,(%eax)
    1592:	00 00                	add    %al,(%eax)
    1594:	25 27 00 00 01       	and    $0x1000027,%eax
    1599:	30 00                	xor    %al,(%eax)
    159b:	00 41 27             	add    %al,0x27(%ecx)
    159e:	00 00                	add    %al,(%eax)
    15a0:	01 30                	add    %esi,(%eax)
    15a2:	00 00                	add    %al,(%eax)
    15a4:	6f                   	outsl  %ds:(%esi),(%dx)
    15a5:	27                   	daa    
    15a6:	00 00                	add    %al,(%eax)
    15a8:	01 30                	add    %esi,(%eax)
    15aa:	00 00                	add    %al,(%eax)
    15ac:	f9                   	stc    
    15ad:	27                   	daa    
    15ae:	00 00                	add    %al,(%eax)
    15b0:	01 30                	add    %esi,(%eax)
    15b2:	00 00                	add    %al,(%eax)
    15b4:	14 28                	adc    $0x28,%al
    15b6:	00 00                	add    %al,(%eax)
    15b8:	01 30                	add    %esi,(%eax)
    15ba:	00 00                	add    %al,(%eax)
    15bc:	2b 28                	sub    (%eax),%ebp
    15be:	00 00                	add    %al,(%eax)
    15c0:	01 30                	add    %esi,(%eax)
    15c2:	00 00                	add    %al,(%eax)
    15c4:	3e 28 00             	sub    %al,%ds:(%eax)
    15c7:	00 01                	add    %al,(%ecx)
    15c9:	30 00                	xor    %al,(%eax)
    15cb:	00 56 28             	add    %dl,0x28(%esi)
    15ce:	00 00                	add    %al,(%eax)
    15d0:	01 30                	add    %esi,(%eax)
    15d2:	00 00                	add    %al,(%eax)
    15d4:	69 28 00 00 01 30    	imul   $0x30010000,(%eax),%ebp
    15da:	00 00                	add    %al,(%eax)
    15dc:	82                   	(bad)  
    15dd:	28 00                	sub    %al,(%eax)
    15df:	00 01                	add    %al,(%ecx)
    15e1:	30 00                	xor    %al,(%eax)
    15e3:	00 9c 28 00 00 01 30 	add    %bl,0x30010000(%eax,%ebp,1)
    15ea:	00 00                	add    %al,(%eax)
    15ec:	c5 28                	lds    (%eax),%ebp
    15ee:	00 00                	add    %al,(%eax)
    15f0:	01 30                	add    %esi,(%eax)
    15f2:	00 00                	add    %al,(%eax)
    15f4:	88 29                	mov    %ch,(%ecx)
    15f6:	00 00                	add    %al,(%eax)
    15f8:	01 30                	add    %esi,(%eax)
    15fa:	00 00                	add    %al,(%eax)
    15fc:	a6                   	cmpsb  %es:(%edi),%ds:(%esi)
    15fd:	29 00                	sub    %eax,(%eax)
    15ff:	00 01                	add    %al,(%ecx)
    1601:	30 00                	xor    %al,(%eax)
    1603:	00 bd 29 00 00 01    	add    %bh,0x1000029(%ebp)
    1609:	30 00                	xor    %al,(%eax)
    160b:	00 d9                	add    %bl,%cl
    160d:	29 00                	sub    %eax,(%eax)
    160f:	00 01                	add    %al,(%ecx)
    1611:	30 00                	xor    %al,(%eax)
    1613:	00 ec                	add    %ch,%ah
    1615:	29 00                	sub    %eax,(%eax)
    1617:	00 01                	add    %al,(%ecx)
    1619:	30 00                	xor    %al,(%eax)
    161b:	00 ff                	add    %bh,%bh
    161d:	29 00                	sub    %eax,(%eax)
    161f:	00 01                	add    %al,(%ecx)
    1621:	30 00                	xor    %al,(%eax)
    1623:	00 37                	add    %dh,(%edi)
    1625:	2a 00                	sub    (%eax),%al
    1627:	00 01                	add    %al,(%ecx)
    1629:	30 00                	xor    %al,(%eax)
    162b:	00 52 2a             	add    %dl,0x2a(%edx)
    162e:	00 00                	add    %al,(%eax)
    1630:	01 30                	add    %esi,(%eax)
    1632:	00 00                	add    %al,(%eax)
    1634:	6a 2a                	push   $0x2a
    1636:	00 00                	add    %al,(%eax)
    1638:	01 30                	add    %esi,(%eax)
    163a:	00 00                	add    %al,(%eax)
    163c:	7d 2a                	jge    1668 <_init-0x45c>
    163e:	00 00                	add    %al,(%eax)
    1640:	01 30                	add    %esi,(%eax)
    1642:	00 00                	add    %al,(%eax)
    1644:	90                   	nop    
    1645:	2a 00                	sub    (%eax),%al
    1647:	00 01                	add    %al,(%ecx)
    1649:	30 00                	xor    %al,(%eax)
    164b:	00 ab 2a 00 00 01    	add    %ch,0x100002a(%ebx)
    1651:	30 00                	xor    %al,(%eax)
    1653:	00 be 2a 00 00 01    	add    %bh,0x100002a(%esi)
    1659:	30 00                	xor    %al,(%eax)
    165b:	00 d8                	add    %bl,%al
    165d:	2a 00                	sub    (%eax),%al
    165f:	00 01                	add    %al,(%ecx)
    1661:	30 00                	xor    %al,(%eax)
    1663:	00 01                	add    %al,(%ecx)
    1665:	2b 00                	sub    (%eax),%eax
    1667:	00 01                	add    %al,(%ecx)
    1669:	30 00                	xor    %al,(%eax)
    166b:	00 61 2c             	add    %ah,0x2c(%ecx)
    166e:	00 00                	add    %al,(%eax)
    1670:	01 30                	add    %esi,(%eax)
    1672:	00 00                	add    %al,(%eax)
    1674:	77 2c                	ja     16a2 <_init-0x422>
    1676:	00 00                	add    %al,(%eax)
    1678:	01 30                	add    %esi,(%eax)
    167a:	00 00                	add    %al,(%eax)
    167c:	9c                   	pushf  
    167d:	2c 00                	sub    $0x0,%al
    167f:	00 01                	add    %al,(%ecx)
    1681:	30 00                	xor    %al,(%eax)
    1683:	00 ca                	add    %cl,%dl
    1685:	2c 00                	sub    $0x0,%al
    1687:	00 01                	add    %al,(%ecx)
    1689:	30 00                	xor    %al,(%eax)
    168b:	00 e1                	add    %ah,%cl
    168d:	2c 00                	sub    $0x0,%al
    168f:	00 01                	add    %al,(%ecx)
    1691:	30 00                	xor    %al,(%eax)
    1693:	00 f8                	add    %bh,%al
    1695:	2c 00                	sub    $0x0,%al
    1697:	00 01                	add    %al,(%ecx)
    1699:	30 00                	xor    %al,(%eax)
    169b:	00 b6 24 00 00 02    	add    %dh,0x2000024(%esi)
    16a1:	39 00                	cmp    %eax,(%eax)
    16a3:	00 b1 25 00 00 02    	add    %dh,0x2000025(%ecx)
    16a9:	39 00                	cmp    %eax,(%eax)
    16ab:	00 10                	add    %dl,(%eax)
    16ad:	25 00 00 02 4f       	and    $0x4f020000,%eax
    16b2:	00 00                	add    %al,(%eax)
    16b4:	c8 2b 00 00          	enter  $0x2b,$0x0
    16b8:	02 0f                	add    (%edi),%cl
    16ba:	00 00                	add    %al,(%eax)
    16bc:	dc 2b                	fsubrl (%ebx)
    16be:	00 00                	add    %al,(%eax)
    16c0:	02 0f                	add    (%edi),%cl
    16c2:	00 00                	add    %al,(%eax)
    16c4:	f0 2b 00             	lock sub (%eax),%eax
    16c7:	00 02                	add    %al,(%edx)
    16c9:	0f 00 00             	sldtl  (%eax)
    16cc:	04 2c                	add    $0x2c,%al
    16ce:	00 00                	add    %al,(%eax)
    16d0:	02 0f                	add    (%edi),%cl
    16d2:	00 00                	add    %al,(%eax)
    16d4:	18 2c 00             	sbb    %ch,(%eax,%eax,1)
    16d7:	00 02                	add    %al,(%edx)
    16d9:	0f 00 00             	sldtl  (%eax)
    16dc:	2c 2c                	sub    $0x2c,%al
    16de:	00 00                	add    %al,(%eax)
    16e0:	02 0f                	add    (%edi),%cl
    16e2:	00 00                	add    %al,(%eax)
    16e4:	31 2c 00             	xor    %ebp,(%eax,%eax,1)
    16e7:	00 02                	add    %al,(%edx)
    16e9:	1d 00 00 3d 2c       	sbb    $0x2c3d0000,%eax
    16ee:	00 00                	add    %al,(%eax)
    16f0:	02 5e 00             	add    0x0(%esi),%bl
    16f3:	00 42 2c             	add    %al,0x2c(%edx)
    16f6:	00 00                	add    %al,(%eax)
    16f8:	02 21                	add    (%ecx),%ah
    16fa:	00 00                	add    %al,(%eax)
    16fc:	d8 2d 00 00 02 13    	fsubrs 0x13020000
    1702:	00 00                	add    %al,(%eax)
    1704:	fe                   	(bad)  
    1705:	2d 00 00 02 34       	sub    $0x34020000,%eax
    170a:	00 00                	add    %al,(%eax)
    170c:	53                   	push   %ebx
    170d:	2e 00 00             	add    %al,%cs:(%eax)
    1710:	02 34 00             	add    (%eax,%eax,1),%dh
    1713:	00 64 2e 00          	add    %ah,0x0(%esi,%ebp,1)
    1717:	00 02                	add    %al,(%edx)
    1719:	1b 00                	sbb    (%eax),%eax
    171b:	00 78 2e             	add    %bh,0x2e(%eax)
    171e:	00 00                	add    %al,(%eax)
    1720:	02 1b                	add    (%ebx),%bl
    1722:	00 00                	add    %al,(%eax)
    1724:	e6 2e                	out    %al,$0x2e
    1726:	00 00                	add    %al,(%eax)
    1728:	02 1b                	add    (%ebx),%bl
    172a:	00 00                	add    %al,(%eax)
    172c:	89 2e                	mov    %ebp,(%esi)
    172e:	00 00                	add    %al,(%eax)
    1730:	02 5a 00             	add    0x0(%edx),%bl
    1733:	00 8e 32 00 00 02    	add    %cl,0x2000032(%esi)
    1739:	5a                   	pop    %edx
    173a:	00 00                	add    %al,(%eax)
    173c:	d0 3a                	sarb   (%edx)
    173e:	00 00                	add    %al,(%eax)
    1740:	02 5a 00             	add    0x0(%edx),%bl
    1743:	00 a4 2e 00 00 02 26 	add    %ah,0x26020000(%esi,%ebp,1)
    174a:	00 00                	add    %al,(%eax)
    174c:	a9 32 00 00 02       	test   $0x2000032,%eax
    1751:	26 00 00             	add    %al,%es:(%eax)
    1754:	1c 3b                	sbb    $0x3b,%al
    1756:	00 00                	add    %al,(%eax)
    1758:	02 26                	add    (%esi),%ah
    175a:	00 00                	add    %al,(%eax)
    175c:	b1 2e                	mov    $0x2e,%cl
    175e:	00 00                	add    %al,(%eax)
    1760:	02 48 00             	add    0x0(%eax),%cl
    1763:	00 b6 32 00 00 02    	add    %dh,0x2000032(%esi)
    1769:	48                   	dec    %eax
    176a:	00 00                	add    %al,(%eax)
    176c:	f3 3a 00             	repz cmp (%eax),%al
    176f:	00 02                	add    %al,(%edx)
    1771:	48                   	dec    %eax
    1772:	00 00                	add    %al,(%eax)
    1774:	56                   	push   %esi
    1775:	3b 00                	cmp    (%eax),%eax
    1777:	00 02                	add    %al,(%edx)
    1779:	48                   	dec    %eax
    177a:	00 00                	add    %al,(%eax)
    177c:	92                   	xchg   %eax,%edx
    177d:	3b 00                	cmp    (%eax),%eax
    177f:	00 02                	add    %al,(%edx)
    1781:	48                   	dec    %eax
    1782:	00 00                	add    %al,(%eax)
    1784:	d3 3b                	sarl   %cl,(%ebx)
    1786:	00 00                	add    %al,(%eax)
    1788:	02 48 00             	add    0x0(%eax),%cl
    178b:	00 07                	add    %al,(%edi)
    178d:	2f                   	das    
    178e:	00 00                	add    %al,(%eax)
    1790:	02 3a                	add    (%edx),%bh
    1792:	00 00                	add    %al,(%eax)
    1794:	42                   	inc    %edx
    1795:	2f                   	das    
    1796:	00 00                	add    %al,(%eax)
    1798:	01 3e                	add    %edi,(%esi)
    179a:	00 00                	add    %al,(%eax)
    179c:	85 2f                	test   %ebp,(%edi)
    179e:	00 00                	add    %al,(%eax)
    17a0:	01 3e                	add    %edi,(%esi)
    17a2:	00 00                	add    %al,(%eax)
    17a4:	b6 30                	mov    $0x30,%dh
    17a6:	00 00                	add    %al,(%eax)
    17a8:	01 3e                	add    %edi,(%esi)
    17aa:	00 00                	add    %al,(%eax)
    17ac:	0c 3c                	or     $0x3c,%al
    17ae:	00 00                	add    %al,(%eax)
    17b0:	01 3e                	add    %edi,(%esi)
    17b2:	00 00                	add    %al,(%eax)
    17b4:	4c                   	dec    %esp
    17b5:	3c 00                	cmp    $0x0,%al
    17b7:	00 01                	add    %al,(%ecx)
    17b9:	3e 00 00             	add    %al,%ds:(%eax)
    17bc:	e4 2f                	in     $0x2f,%al
    17be:	00 00                	add    %al,(%eax)
    17c0:	02 10                	add    (%eax),%dl
    17c2:	00 00                	add    %al,(%eax)
    17c4:	09 30                	or     %esi,(%eax)
    17c6:	00 00                	add    %al,(%eax)
    17c8:	02 17                	add    (%edi),%dl
    17ca:	00 00                	add    %al,(%eax)
    17cc:	2e 30 00             	xor    %al,%cs:(%eax)
    17cf:	00 01                	add    %al,(%ecx)
    17d1:	3d 00 00 3d 30       	cmp    $0x303d0000,%eax
    17d6:	00 00                	add    %al,(%eax)
    17d8:	02 53 00             	add    0x0(%ebx),%dl
    17db:	00 4e 30             	add    %cl,0x30(%esi)
    17de:	00 00                	add    %al,(%eax)
    17e0:	02 5d 00             	add    0x0(%ebp),%bl
    17e3:	00 76 30             	add    %dh,0x30(%esi)
    17e6:	00 00                	add    %al,(%eax)
    17e8:	02 1c 00             	add    (%eax,%eax,1),%bl
    17eb:	00 99 30 00 00 02    	add    %bl,0x2000030(%ecx)
    17f1:	1c 00                	sbb    $0x0,%al
    17f3:	00 89 31 00 00 02    	add    %cl,0x2000031(%ecx)
    17f9:	1c 00                	sbb    $0x0,%al
    17fb:	00 ee                	add    %ch,%dh
    17fd:	30 00                	xor    %al,(%eax)
    17ff:	00 02                	add    %al,(%edx)
    1801:	2c 00                	sub    $0x0,%al
    1803:	00 32                	add    %dh,(%edx)
    1805:	31 00                	xor    %eax,(%eax)
    1807:	00 02                	add    %al,(%edx)
    1809:	46                   	inc    %esi
    180a:	00 00                	add    %al,(%eax)
    180c:	dc 31                	fdivl  (%ecx)
    180e:	00 00                	add    %al,(%eax)
    1810:	02 46 00             	add    0x0(%esi),%al
    1813:	00 17                	add    %dl,(%edi)
    1815:	33 00                	xor    (%eax),%eax
    1817:	00 02                	add    %al,(%edx)
    1819:	46                   	inc    %esi
    181a:	00 00                	add    %al,(%eax)
    181c:	31 37                	xor    %esi,(%edi)
    181e:	00 00                	add    %al,(%eax)
    1820:	02 46 00             	add    0x0(%esi),%al
    1823:	00 84 37 00 00 02 46 	add    %al,0x46020000(%edi,%esi,1)
    182a:	00 00                	add    %al,(%eax)
    182c:	ee                   	out    %al,(%dx)
    182d:	37                   	aaa    
    182e:	00 00                	add    %al,(%eax)
    1830:	02 46 00             	add    0x0(%esi),%al
    1833:	00 86 38 00 00 02    	add    %al,0x2000038(%esi)
    1839:	46                   	inc    %esi
    183a:	00 00                	add    %al,(%eax)
    183c:	07                   	pop    %es
    183d:	39 00                	cmp    %eax,(%eax)
    183f:	00 02                	add    %al,(%edx)
    1841:	46                   	inc    %esi
    1842:	00 00                	add    %al,(%eax)
    1844:	45                   	inc    %ebp
    1845:	31 00                	xor    %eax,(%eax)
    1847:	00 02                	add    %al,(%edx)
    1849:	38 00                	cmp    %al,(%eax)
    184b:	00 08                	add    %cl,(%eax)
    184d:	33 00                	xor    (%eax),%eax
    184f:	00 02                	add    %al,(%edx)
    1851:	38 00                	cmp    %al,(%eax)
    1853:	00 15 34 00 00 02    	add    %dl,0x2000034
    1859:	38 00                	cmp    %al,(%eax)
    185b:	00 af 34 00 00 02    	add    %ch,0x2000034(%edi)
    1861:	38 00                	cmp    %al,(%eax)
    1863:	00 ae 31 00 00 02    	add    %ch,0x2000031(%esi)
    1869:	0d 00 00 f0 31       	or     $0x31f00000,%eax
    186e:	00 00                	add    %al,(%eax)
    1870:	02 35 00 00 04 32    	add    0x32040000,%dh
    1876:	00 00                	add    %al,(%eax)
    1878:	02 35 00 00 18 32    	add    0x32180000,%dh
    187e:	00 00                	add    %al,(%eax)
    1880:	02 35 00 00 2c 32    	add    0x322c0000,%dh
    1886:	00 00                	add    %al,(%eax)
    1888:	02 35 00 00 42 33    	add    0x33420000,%dh
    188e:	00 00                	add    %al,(%eax)
    1890:	02 35 00 00 6d 33    	add    0x336d0000,%dh
    1896:	00 00                	add    %al,(%eax)
    1898:	02 35 00 00 98 33    	add    0x33980000,%dh
    189e:	00 00                	add    %al,(%eax)
    18a0:	02 35 00 00 ca 33    	add    0x33ca0000,%dh
    18a6:	00 00                	add    %al,(%eax)
    18a8:	02 35 00 00 db 33    	add    0x33db0000,%dh
    18ae:	00 00                	add    %al,(%eax)
    18b0:	02 35 00 00 ec 33    	add    0x33ec0000,%dh
    18b6:	00 00                	add    %al,(%eax)
    18b8:	02 35 00 00 fd 33    	add    0x33fd0000,%dh
    18be:	00 00                	add    %al,(%eax)
    18c0:	02 35 00 00 48 37    	add    0x37480000,%dh
    18c6:	00 00                	add    %al,(%eax)
    18c8:	02 35 00 00 9b 37    	add    0x379b0000,%dh
    18ce:	00 00                	add    %al,(%eax)
    18d0:	02 35 00 00 b2 37    	add    0x37b20000,%dh
    18d6:	00 00                	add    %al,(%eax)
    18d8:	02 35 00 00 05 38    	add    0x38050000,%dh
    18de:	00 00                	add    %al,(%eax)
    18e0:	02 35 00 00 1c 38    	add    0x381c0000,%dh
    18e6:	00 00                	add    %al,(%eax)
    18e8:	02 35 00 00 33 38    	add    0x38330000,%dh
    18ee:	00 00                	add    %al,(%eax)
    18f0:	02 35 00 00 4a 38    	add    0x384a0000,%dh
    18f6:	00 00                	add    %al,(%eax)
    18f8:	02 35 00 00 9d 38    	add    0x389d0000,%dh
    18fe:	00 00                	add    %al,(%eax)
    1900:	02 35 00 00 b4 38    	add    0x38b40000,%dh
    1906:	00 00                	add    %al,(%eax)
    1908:	02 35 00 00 cb 38    	add    0x38cb0000,%dh
    190e:	00 00                	add    %al,(%eax)
    1910:	02 35 00 00 25 39    	add    0x39250000,%dh
    1916:	00 00                	add    %al,(%eax)
    1918:	02 35 00 00 4a 32    	add    0x324a0000,%dh
    191e:	00 00                	add    %al,(%eax)
    1920:	02 32                	add    (%edx),%dh
    1922:	00 00                	add    %al,(%eax)
    1924:	6e                   	outsb  %ds:(%esi),(%dx)
    1925:	32 00                	xor    (%eax),%al
    1927:	00 02                	add    %al,(%edx)
    1929:	47                   	inc    %edi
    192a:	00 00                	add    %al,(%eax)
    192c:	dc 32                	fdivl  (%edx)
    192e:	00 00                	add    %al,(%eax)
    1930:	02 19                	add    (%ecx),%bl
    1932:	00 00                	add    %al,(%eax)
    1934:	27                   	daa    
    1935:	3b 00                	cmp    (%eax),%eax
    1937:	00 02                	add    %al,(%edx)
    1939:	19 00                	sbb    %eax,(%eax)
    193b:	00 e4                	add    %ah,%ah
    193d:	32 00                	xor    (%eax),%al
    193f:	00 02                	add    %al,(%edx)
    1941:	50                   	push   %eax
    1942:	00 00                	add    %al,(%eax)
    1944:	2b 33                	sub    (%ebx),%esi
    1946:	00 00                	add    %al,(%eax)
    1948:	02 14 00             	add    (%eax,%eax,1),%dl
    194b:	00 56 33             	add    %dl,0x33(%esi)
    194e:	00 00                	add    %al,(%eax)
    1950:	02 14 00             	add    (%eax,%eax,1),%dl
    1953:	00 81 33 00 00 02    	add    %al,0x2000033(%ecx)
    1959:	14 00                	adc    $0x0,%al
    195b:	00 3f                	add    %bh,(%edi)
    195d:	34 00                	xor    $0x0,%al
    195f:	00 02                	add    %al,(%edx)
    1961:	14 00                	adc    $0x0,%al
    1963:	00 62 34             	add    %ah,0x34(%edx)
    1966:	00 00                	add    %al,(%eax)
    1968:	02 14 00             	add    (%eax,%eax,1),%dl
    196b:	00 c0                	add    %al,%al
    196d:	34 00                	xor    $0x0,%al
    196f:	00 02                	add    %al,(%edx)
    1971:	14 00                	adc    $0x0,%al
    1973:	00 dd                	add    %bl,%ch
    1975:	34 00                	xor    $0x0,%al
    1977:	00 02                	add    %al,(%edx)
    1979:	14 00                	adc    $0x0,%al
    197b:	00 fa                	add    %bh,%dl
    197d:	34 00                	xor    $0x0,%al
    197f:	00 02                	add    %al,(%edx)
    1981:	14 00                	adc    $0x0,%al
    1983:	00 17                	add    %dl,(%edi)
    1985:	35 00 00 02 14       	xor    $0x14020000,%eax
    198a:	00 00                	add    %al,(%eax)
    198c:	34 35                	xor    $0x35,%al
    198e:	00 00                	add    %al,(%eax)
    1990:	02 14 00             	add    (%eax,%eax,1),%dl
    1993:	00 51 35             	add    %dl,0x35(%ecx)
    1996:	00 00                	add    %al,(%eax)
    1998:	02 14 00             	add    (%eax,%eax,1),%dl
    199b:	00 6e 35             	add    %ch,0x35(%esi)
    199e:	00 00                	add    %al,(%eax)
    19a0:	02 14 00             	add    (%eax,%eax,1),%dl
    19a3:	00 2b                	add    %ch,(%ebx)
    19a5:	34 00                	xor    $0x0,%al
    19a7:	00 02                	add    %al,(%edx)
    19a9:	1e                   	push   %ds
    19aa:	00 00                	add    %al,(%eax)
    19ac:	e6 3a                	out    %al,$0x3a
    19ae:	00 00                	add    %al,(%eax)
    19b0:	02 1e                	add    (%esi),%bl
    19b2:	00 00                	add    %al,(%eax)
    19b4:	49                   	dec    %ecx
    19b5:	3b 00                	cmp    (%eax),%eax
    19b7:	00 02                	add    %al,(%edx)
    19b9:	1e                   	push   %ds
    19ba:	00 00                	add    %al,(%eax)
    19bc:	85 3b                	test   %edi,(%ebx)
    19be:	00 00                	add    %al,(%eax)
    19c0:	02 1e                	add    (%esi),%bl
    19c2:	00 00                	add    %al,(%eax)
    19c4:	c6 3b 00             	movb   $0x0,(%ebx)
    19c7:	00 02                	add    %al,(%edx)
    19c9:	1e                   	push   %ds
    19ca:	00 00                	add    %al,(%eax)
    19cc:	53                   	push   %ebx
    19cd:	36 00 00             	add    %al,%ss:(%eax)
    19d0:	02 24 00             	add    (%eax,%eax,1),%ah
    19d3:	00 65 37             	add    %ah,0x37(%ebp)
    19d6:	00 00                	add    %al,(%eax)
    19d8:	02 11                	add    (%ecx),%dl
    19da:	00 00                	add    %al,(%eax)
    19dc:	cf                   	iret   
    19dd:	37                   	aaa    
    19de:	00 00                	add    %al,(%eax)
    19e0:	02 11                	add    (%ecx),%dl
    19e2:	00 00                	add    %al,(%eax)
    19e4:	67 38 00             	addr16 cmp %al,(%bx,%si)
    19e7:	00 02                	add    %al,(%edx)
    19e9:	11 00                	adc    %eax,(%eax)
    19eb:	00 e8                	add    %ch,%al
    19ed:	38 00                	cmp    %al,(%eax)
    19ef:	00 02                	add    %al,(%edx)
    19f1:	11 00                	adc    %eax,(%eax)
    19f3:	00 3b                	add    %bh,(%ebx)
    19f5:	39 00                	cmp    %eax,(%eax)
    19f7:	00 02                	add    %al,(%edx)
    19f9:	11 00                	adc    %eax,(%eax)
    19fb:	00 51 39             	add    %dl,0x39(%ecx)
    19fe:	00 00                	add    %al,(%eax)
    1a00:	02 11                	add    (%ecx),%dl
    1a02:	00 00                	add    %al,(%eax)
    1a04:	67 39 00             	addr16 cmp %eax,(%bx,%si)
    1a07:	00 02                	add    %al,(%edx)
    1a09:	11 00                	adc    %eax,(%eax)
    1a0b:	00 7d 39             	add    %bh,0x39(%ebp)
    1a0e:	00 00                	add    %al,(%eax)
    1a10:	02 11                	add    (%ecx),%dl
    1a12:	00 00                	add    %al,(%eax)
    1a14:	a8 39                	test   $0x39,%al
    1a16:	00 00                	add    %al,(%eax)
    1a18:	02 5b 00             	add    0x0(%ebx),%bl
    1a1b:	00 d2                	add    %dl,%dl
    1a1d:	39 00                	cmp    %eax,(%eax)
    1a1f:	00 02                	add    %al,(%edx)
    1a21:	43                   	inc    %ebx
    1a22:	00 00                	add    %al,(%eax)
    1a24:	ae                   	scas   %es:(%edi),%al
    1a25:	3a 00                	cmp    (%eax),%al
    1a27:	00 02                	add    %al,(%edx)
    1a29:	2e 00 00             	add    %al,%cs:(%eax)
    1a2c:	33 3b                	xor    (%ebx),%edi
    1a2e:	00 00                	add    %al,(%eax)
    1a30:	02 40 00             	add    0x0(%eax),%al
    1a33:	00 6a 3b             	add    %ch,0x3b(%edx)
    1a36:	00 00                	add    %al,(%eax)
    1a38:	02 40 00             	add    0x0(%eax),%al
    1a3b:	00 b0 3b 00 00 02    	add    %dh,0x200003b(%eax)
    1a41:	40                   	inc    %eax
    1a42:	00 00                	add    %al,(%eax)
    1a44:	bc 53 00 00 06       	mov    $0x6000053,%esp
    1a49:	44                   	inc    %esp
    1a4a:	00 00                	add    %al,(%eax)
    1a4c:	c0 53 00 00          	rclb   $0x0,0x0(%ebx)
    1a50:	06                   	push   %es
    1a51:	54                   	push   %esp
    1a52:	00 00                	add    %al,(%eax)
    1a54:	c4 53 00             	les    0x0(%ebx),%edx
    1a57:	00 06                	add    %al,(%esi)
    1a59:	5c                   	pop    %esp
    1a5a:	00 00                	add    %al,(%eax)
    1a5c:	00 54 00 00          	add    %dl,0x0(%eax,%eax,1)
    1a60:	01 59 00             	add    %ebx,0x0(%ecx)
    1a63:	00 04 54             	add    %al,(%esp,%edx,2)
    1a66:	00 00                	add    %al,(%eax)
    1a68:	01 4b 00             	add    %ecx,0x0(%ebx)
    1a6b:	00 08                	add    %cl,(%eax)
    1a6d:	54                   	push   %esp
    1a6e:	00 00                	add    %al,(%eax)
    1a70:	01 27                	add    %esp,(%edi)
    1a72:	00 00                	add    %al,(%eax)
    1a74:	0c 54                	or     $0x54,%al
    1a76:	00 00                	add    %al,(%eax)
    1a78:	01 22                	add    %esp,(%edx)
    1a7a:	00 00                	add    %al,(%eax)
    1a7c:	10 54 00 00          	adc    %dl,0x0(%eax,%eax,1)
    1a80:	01 28                	add    %ebp,(%eax)
    1a82:	00 00                	add    %al,(%eax)
    1a84:	14 54                	adc    $0x54,%al
    1a86:	00 00                	add    %al,(%eax)
    1a88:	01 57 00             	add    %edx,0x0(%edi)
    1a8b:	00 18                	add    %bl,(%eax)
    1a8d:	54                   	push   %esp
    1a8e:	00 00                	add    %al,(%eax)
    1a90:	01 12                	add    %edx,(%edx)
    1a92:	00 00                	add    %al,(%eax)
    1a94:	1c 54                	sbb    $0x54,%al
    1a96:	00 00                	add    %al,(%eax)
    1a98:	01 25 00 00 20 54    	add    %esp,0x54200000
    1a9e:	00 00                	add    %al,(%eax)
    1aa0:	01 2a                	add    %ebp,(%edx)
    1aa2:	00 00                	add    %al,(%eax)
    1aa4:	24 54                	and    $0x54,%al
    1aa6:	00 00                	add    %al,(%eax)
    1aa8:	01 45 00             	add    %eax,0x0(%ebp)
    1aab:	00 28                	add    %ch,(%eax)
    1aad:	54                   	push   %esp
    1aae:	00 00                	add    %al,(%eax)
    1ab0:	01 52 00             	add    %edx,0x0(%edx)
	...
Desensamblado de la sección .rel.plt:

00001ab4 <.rel.plt>:
    1ab4:	d4 53                	aam    $0x53
    1ab6:	00 00                	add    %al,(%eax)
    1ab8:	07                   	pop    %es
    1ab9:	44                   	inc    %esp
    1aba:	00 00                	add    %al,(%eax)
    1abc:	d8 53 00             	fcoms  0x0(%ebx)
    1abf:	00 07                	add    %al,(%edi)
    1ac1:	5c                   	pop    %esp
	...
Desensamblado de la sección .init:

00001ac4 <_init>:
    1ac4:	55                   	push   %ebp
    1ac5:	89 e5                	mov    %esp,%ebp
    1ac7:	83 ec 08             	sub    $0x8,%esp
    1aca:	e8 41 00 00 00       	call   1b10 <call_gmon_start>
    1acf:	e8 bd 00 00 00       	call   1b91 <frame_dummy>
    1ad4:	e8 c3 22 00 00       	call   3d9c <__do_global_ctors_aux>
    1ad9:	c9                   	leave  
    1ada:	c3                   	ret    
Desensamblado de la sección .plt:

00001adc <__cxa_finalize@plt-0x10>:
    1adc:	ff b3 04 00 00 00    	pushl  0x4(%ebx)
    1ae2:	ff a3 08 00 00 00    	jmp    *0x8(%ebx)
    1ae8:	00 00                	add    %al,(%eax)
	...

00001aec <__cxa_finalize@plt>:
    1aec:	ff a3 0c 00 00 00    	jmp    *0xc(%ebx)
    1af2:	68 00 00 00 00       	push   $0x0
    1af7:	e9 e0 ff ff ff       	jmp    1adc <_init+0x18>

00001afc <__gmon_start__@plt>:
    1afc:	ff a3 10 00 00 00    	jmp    *0x10(%ebx)
    1b02:	68 08 00 00 00       	push   $0x8
    1b07:	e9 d0 ff ff ff       	jmp    1adc <_init+0x18>
Desensamblado de la sección .text:

00001b10 <call_gmon_start>:
    1b10:	55                   	push   %ebp
    1b11:	89 e5                	mov    %esp,%ebp
    1b13:	53                   	push   %ebx
    1b14:	83 ec 04             	sub    $0x4,%esp
    1b17:	e8 00 00 00 00       	call   1b1c <call_gmon_start+0xc>
    1b1c:	5b                   	pop    %ebx
    1b1d:	81 c3 ac 38 00 00    	add    $0x38ac,%ebx
    1b23:	8b 93 fc ff ff ff    	mov    0xfffffffc(%ebx),%edx
    1b29:	85 d2                	test   %edx,%edx
    1b2b:	74 05                	je     1b32 <call_gmon_start+0x22>
    1b2d:	e8 ca ff ff ff       	call   1afc <__gmon_start__@plt>
    1b32:	58                   	pop    %eax
    1b33:	5b                   	pop    %ebx
    1b34:	c9                   	leave  
    1b35:	c3                   	ret    
    1b36:	90                   	nop    
    1b37:	90                   	nop    

00001b38 <__do_global_dtors_aux>:
    1b38:	55                   	push   %ebp
    1b39:	89 e5                	mov    %esp,%ebp
    1b3b:	53                   	push   %ebx
    1b3c:	83 ec 04             	sub    $0x4,%esp
    1b3f:	e8 84 00 00 00       	call   1bc8 <__i686.get_pc_thunk.bx>
    1b44:	81 c3 84 38 00 00    	add    $0x3884,%ebx
    1b4a:	80 bb 78 00 00 00 00 	cmpb   $0x0,0x78(%ebx)
    1b51:	75 38                	jne    1b8b <__do_global_dtors_aux+0x53>
    1b53:	8b 83 f4 ff ff ff    	mov    0xfffffff4(%ebx),%eax
    1b59:	85 c0                	test   %eax,%eax
    1b5b:	74 1b                	je     1b78 <__do_global_dtors_aux+0x40>
    1b5d:	8b 83 18 00 00 00    	mov    0x18(%ebx),%eax
    1b63:	89 04 24             	mov    %eax,(%esp)
    1b66:	e8 81 ff ff ff       	call   1aec <__cxa_finalize@plt>
    1b6b:	eb 0b                	jmp    1b78 <__do_global_dtors_aux+0x40>
    1b6d:	83 c0 04             	add    $0x4,%eax
    1b70:	89 83 1c 00 00 00    	mov    %eax,0x1c(%ebx)
    1b76:	ff d2                	call   *%edx
    1b78:	8b 83 1c 00 00 00    	mov    0x1c(%ebx),%eax
    1b7e:	8b 10                	mov    (%eax),%edx
    1b80:	85 d2                	test   %edx,%edx
    1b82:	75 e9                	jne    1b6d <__do_global_dtors_aux+0x35>
    1b84:	c6 83 78 00 00 00 01 	movb   $0x1,0x78(%ebx)
    1b8b:	83 c4 04             	add    $0x4,%esp
    1b8e:	5b                   	pop    %ebx
    1b8f:	5d                   	pop    %ebp
    1b90:	c3                   	ret    

00001b91 <frame_dummy>:
    1b91:	55                   	push   %ebp
    1b92:	89 e5                	mov    %esp,%ebp
    1b94:	53                   	push   %ebx
    1b95:	83 ec 04             	sub    $0x4,%esp
    1b98:	e8 2b 00 00 00       	call   1bc8 <__i686.get_pc_thunk.bx>
    1b9d:	81 c3 2b 38 00 00    	add    $0x382b,%ebx
    1ba3:	8b 93 18 ff ff ff    	mov    0xffffff18(%ebx),%edx
    1ba9:	85 d2                	test   %edx,%edx
    1bab:	74 15                	je     1bc2 <frame_dummy+0x31>
    1bad:	8b 93 f8 ff ff ff    	mov    0xfffffff8(%ebx),%edx
    1bb3:	85 d2                	test   %edx,%edx
    1bb5:	74 0b                	je     1bc2 <frame_dummy+0x31>
    1bb7:	8d 83 18 ff ff ff    	lea    0xffffff18(%ebx),%eax
    1bbd:	89 04 24             	mov    %eax,(%esp)
    1bc0:	ff d2                	call   *%edx
    1bc2:	83 c4 04             	add    $0x4,%esp
    1bc5:	5b                   	pop    %ebx
    1bc6:	5d                   	pop    %ebp
    1bc7:	c3                   	ret    

00001bc8 <__i686.get_pc_thunk.bx>:
    1bc8:	8b 1c 24             	mov    (%esp),%ebx
    1bcb:	c3                   	ret    

00001bcc <iniciar_tabla_proc>:
    1bcc:	55                   	push   %ebp
    1bcd:	89 e5                	mov    %esp,%ebp
    1bcf:	83 ec 10             	sub    $0x10,%esp
    1bd2:	c7 45 fc 00 00 00 00 	movl   $0x0,0xfffffffc(%ebp)
    1bd9:	eb 20                	jmp    1bfb <iniciar_tabla_proc+0x2f>
    1bdb:	8b 55 fc             	mov    0xfffffffc(%ebp),%edx
    1bde:	89 d0                	mov    %edx,%eax
    1be0:	01 c0                	add    %eax,%eax
    1be2:	01 d0                	add    %edx,%eax
    1be4:	89 c2                	mov    %eax,%edx
    1be6:	c1 e2 04             	shl    $0x4,%edx
    1be9:	01 d0                	add    %edx,%eax
    1beb:	c1 e0 03             	shl    $0x3,%eax
    1bee:	c7 80 04 00 00 00 00 	movl   $0x0,0x4(%eax)
    1bf5:	00 00 00 
    1bf8:	ff 45 fc             	incl   0xfffffffc(%ebp)
    1bfb:	83 7d fc 09          	cmpl   $0x9,0xfffffffc(%ebp)
    1bff:	7e da                	jle    1bdb <iniciar_tabla_proc+0xf>
    1c01:	c9                   	leave  
    1c02:	c3                   	ret    

00001c03 <buscar_BCP_libre>:
    1c03:	55                   	push   %ebp
    1c04:	89 e5                	mov    %esp,%ebp
    1c06:	83 ec 14             	sub    $0x14,%esp
    1c09:	c7 45 fc 00 00 00 00 	movl   $0x0,0xfffffffc(%ebp)
    1c10:	eb 28                	jmp    1c3a <buscar_BCP_libre+0x37>
    1c12:	8b 55 fc             	mov    0xfffffffc(%ebp),%edx
    1c15:	89 d0                	mov    %edx,%eax
    1c17:	01 c0                	add    %eax,%eax
    1c19:	01 d0                	add    %edx,%eax
    1c1b:	89 c2                	mov    %eax,%edx
    1c1d:	c1 e2 04             	shl    $0x4,%edx
    1c20:	01 d0                	add    %edx,%eax
    1c22:	c1 e0 03             	shl    $0x3,%eax
    1c25:	8b 80 04 00 00 00    	mov    0x4(%eax),%eax
    1c2b:	85 c0                	test   %eax,%eax
    1c2d:	75 08                	jne    1c37 <buscar_BCP_libre+0x34>
    1c2f:	8b 45 fc             	mov    0xfffffffc(%ebp),%eax
    1c32:	89 45 ec             	mov    %eax,0xffffffec(%ebp)
    1c35:	eb 10                	jmp    1c47 <buscar_BCP_libre+0x44>
    1c37:	ff 45 fc             	incl   0xfffffffc(%ebp)
    1c3a:	83 7d fc 09          	cmpl   $0x9,0xfffffffc(%ebp)
    1c3e:	7e d2                	jle    1c12 <buscar_BCP_libre+0xf>
    1c40:	c7 45 ec ff ff ff ff 	movl   $0xffffffff,0xffffffec(%ebp)
    1c47:	8b 45 ec             	mov    0xffffffec(%ebp),%eax
    1c4a:	c9                   	leave  
    1c4b:	c3                   	ret    

00001c4c <insertar_ultimo>:
    1c4c:	55                   	push   %ebp
    1c4d:	89 e5                	mov    %esp,%ebp
    1c4f:	8b 45 08             	mov    0x8(%ebp),%eax
    1c52:	8b 00                	mov    (%eax),%eax
    1c54:	85 c0                	test   %eax,%eax
    1c56:	75 0a                	jne    1c62 <insertar_ultimo+0x16>
    1c58:	8b 55 08             	mov    0x8(%ebp),%edx
    1c5b:	8b 45 0c             	mov    0xc(%ebp),%eax
    1c5e:	89 02                	mov    %eax,(%edx)
    1c60:	eb 0f                	jmp    1c71 <insertar_ultimo+0x25>
    1c62:	8b 45 08             	mov    0x8(%ebp),%eax
    1c65:	8b 50 04             	mov    0x4(%eax),%edx
    1c68:	8b 45 0c             	mov    0xc(%ebp),%eax
    1c6b:	89 82 80 01 00 00    	mov    %eax,0x180(%edx)
    1c71:	8b 45 08             	mov    0x8(%ebp),%eax
    1c74:	8b 55 0c             	mov    0xc(%ebp),%edx
    1c77:	89 50 04             	mov    %edx,0x4(%eax)
    1c7a:	8b 45 0c             	mov    0xc(%ebp),%eax
    1c7d:	c7 80 80 01 00 00 00 	movl   $0x0,0x180(%eax)
    1c84:	00 00 00 
    1c87:	5d                   	pop    %ebp
    1c88:	c3                   	ret    

00001c89 <eliminar_primero>:
    1c89:	55                   	push   %ebp
    1c8a:	89 e5                	mov    %esp,%ebp
    1c8c:	8b 45 08             	mov    0x8(%ebp),%eax
    1c8f:	8b 50 04             	mov    0x4(%eax),%edx
    1c92:	8b 45 08             	mov    0x8(%ebp),%eax
    1c95:	8b 00                	mov    (%eax),%eax
    1c97:	39 c2                	cmp    %eax,%edx
    1c99:	75 0a                	jne    1ca5 <eliminar_primero+0x1c>
    1c9b:	8b 45 08             	mov    0x8(%ebp),%eax
    1c9e:	c7 40 04 00 00 00 00 	movl   $0x0,0x4(%eax)
    1ca5:	8b 45 08             	mov    0x8(%ebp),%eax
    1ca8:	8b 00                	mov    (%eax),%eax
    1caa:	8b 90 80 01 00 00    	mov    0x180(%eax),%edx
    1cb0:	8b 45 08             	mov    0x8(%ebp),%eax
    1cb3:	89 10                	mov    %edx,(%eax)
    1cb5:	5d                   	pop    %ebp
    1cb6:	c3                   	ret    

00001cb7 <eliminar_elem>:
    1cb7:	55                   	push   %ebp
    1cb8:	89 e5                	mov    %esp,%ebp
    1cba:	83 ec 14             	sub    $0x14,%esp
    1cbd:	8b 45 08             	mov    0x8(%ebp),%eax
    1cc0:	8b 00                	mov    (%eax),%eax
    1cc2:	89 45 fc             	mov    %eax,0xfffffffc(%ebp)
    1cc5:	8b 45 fc             	mov    0xfffffffc(%ebp),%eax
    1cc8:	3b 45 0c             	cmp    0xc(%ebp),%eax
    1ccb:	75 19                	jne    1ce6 <eliminar_elem+0x2f>
    1ccd:	8b 45 08             	mov    0x8(%ebp),%eax
    1cd0:	89 04 24             	mov    %eax,(%esp)
    1cd3:	e8 b1 ff ff ff       	call   1c89 <eliminar_primero>
    1cd8:	eb 5a                	jmp    1d34 <eliminar_elem+0x7d>
    1cda:	8b 45 fc             	mov    0xfffffffc(%ebp),%eax
    1cdd:	8b 80 80 01 00 00    	mov    0x180(%eax),%eax
    1ce3:	89 45 fc             	mov    %eax,0xfffffffc(%ebp)
    1ce6:	83 7d fc 00          	cmpl   $0x0,0xfffffffc(%ebp)
    1cea:	74 0e                	je     1cfa <eliminar_elem+0x43>
    1cec:	8b 45 fc             	mov    0xfffffffc(%ebp),%eax
    1cef:	8b 80 80 01 00 00    	mov    0x180(%eax),%eax
    1cf5:	3b 45 0c             	cmp    0xc(%ebp),%eax
    1cf8:	75 e0                	jne    1cda <eliminar_elem+0x23>
    1cfa:	83 7d fc 00          	cmpl   $0x0,0xfffffffc(%ebp)
    1cfe:	74 34                	je     1d34 <eliminar_elem+0x7d>
    1d00:	8b 45 08             	mov    0x8(%ebp),%eax
    1d03:	8b 50 04             	mov    0x4(%eax),%edx
    1d06:	8b 45 fc             	mov    0xfffffffc(%ebp),%eax
    1d09:	8b 80 80 01 00 00    	mov    0x180(%eax),%eax
    1d0f:	39 c2                	cmp    %eax,%edx
    1d11:	75 09                	jne    1d1c <eliminar_elem+0x65>
    1d13:	8b 55 08             	mov    0x8(%ebp),%edx
    1d16:	8b 45 fc             	mov    0xfffffffc(%ebp),%eax
    1d19:	89 42 04             	mov    %eax,0x4(%edx)
    1d1c:	8b 45 fc             	mov    0xfffffffc(%ebp),%eax
    1d1f:	8b 80 80 01 00 00    	mov    0x180(%eax),%eax
    1d25:	8b 90 80 01 00 00    	mov    0x180(%eax),%edx
    1d2b:	8b 45 fc             	mov    0xfffffffc(%ebp),%eax
    1d2e:	89 90 80 01 00 00    	mov    %edx,0x180(%eax)
    1d34:	c9                   	leave  
    1d35:	c3                   	ret    

00001d36 <espera_int>:
    1d36:	55                   	push   %ebp
    1d37:	89 e5                	mov    %esp,%ebp
    1d39:	83 ec 18             	sub    $0x18,%esp
    1d3c:	c7 04 24 00 3e 00 00 	movl   $0x3e00,(%esp)
    1d43:	e8 fc ff ff ff       	call   1d44 <espera_int+0xe>
    1d48:	c7 04 24 01 00 00 00 	movl   $0x1,(%esp)
    1d4f:	e8 fc ff ff ff       	call   1d50 <espera_int+0x1a>
    1d54:	89 45 fc             	mov    %eax,0xfffffffc(%ebp)
    1d57:	e8 fc ff ff ff       	call   1d58 <espera_int+0x22>
    1d5c:	8b 45 fc             	mov    0xfffffffc(%ebp),%eax
    1d5f:	89 04 24             	mov    %eax,(%esp)
    1d62:	e8 fc ff ff ff       	call   1d63 <espera_int+0x2d>
    1d67:	c9                   	leave  
    1d68:	c3                   	ret    

00001d69 <planificador>:
    1d69:	55                   	push   %ebp
    1d6a:	89 e5                	mov    %esp,%ebp
    1d6c:	83 ec 08             	sub    $0x8,%esp
    1d6f:	eb 05                	jmp    1d76 <planificador+0xd>
    1d71:	e8 c0 ff ff ff       	call   1d36 <espera_int>
    1d76:	a1 00 00 00 00       	mov    0x0,%eax
    1d7b:	85 c0                	test   %eax,%eax
    1d7d:	74 f2                	je     1d71 <planificador+0x8>
    1d7f:	a1 00 00 00 00       	mov    0x0,%eax
    1d84:	c7 40 04 02 00 00 00 	movl   $0x2,0x4(%eax)
    1d8b:	a1 00 00 00 00       	mov    0x0,%eax
    1d90:	8b 80 94 01 00 00    	mov    0x194(%eax),%eax
    1d96:	89 04 24             	mov    %eax,(%esp)
    1d99:	e8 fc ff ff ff       	call   1d9a <planificador+0x31>
    1d9e:	a1 00 00 00 00       	mov    0x0,%eax
    1da3:	c9                   	leave  
    1da4:	c3                   	ret    

00001da5 <liberar_proceso>:
    1da5:	55                   	push   %ebp
    1da6:	89 e5                	mov    %esp,%ebp
    1da8:	83 ec 28             	sub    $0x28,%esp
    1dab:	a1 00 00 00 00       	mov    0x0,%eax
    1db0:	8b 80 84 01 00 00    	mov    0x184(%eax),%eax
    1db6:	89 04 24             	mov    %eax,(%esp)
    1db9:	e8 fc ff ff ff       	call   1dba <liberar_proceso+0x15>
    1dbe:	a1 00 00 00 00       	mov    0x0,%eax
    1dc3:	c7 40 04 00 00 00 00 	movl   $0x0,0x4(%eax)
    1dca:	c7 04 24 00 00 00 00 	movl   $0x0,(%esp)
    1dd1:	e8 b3 fe ff ff       	call   1c89 <eliminar_primero>
    1dd6:	a1 00 00 00 00       	mov    0x0,%eax
    1ddb:	89 45 fc             	mov    %eax,0xfffffffc(%ebp)
    1dde:	e8 86 ff ff ff       	call   1d69 <planificador>
    1de3:	a3 00 00 00 00       	mov    %eax,0x0
    1de8:	a1 00 00 00 00       	mov    0x0,%eax
    1ded:	8b 10                	mov    (%eax),%edx
    1def:	8b 45 fc             	mov    0xfffffffc(%ebp),%eax
    1df2:	8b 00                	mov    (%eax),%eax
    1df4:	89 54 24 08          	mov    %edx,0x8(%esp)
    1df8:	89 44 24 04          	mov    %eax,0x4(%esp)
    1dfc:	c7 04 24 20 3e 00 00 	movl   $0x3e20,(%esp)
    1e03:	e8 fc ff ff ff       	call   1e04 <liberar_proceso+0x5f>
    1e08:	8b 45 fc             	mov    0xfffffffc(%ebp),%eax
    1e0b:	8b 80 7c 01 00 00    	mov    0x17c(%eax),%eax
    1e11:	89 04 24             	mov    %eax,(%esp)
    1e14:	e8 fc ff ff ff       	call   1e15 <liberar_proceso+0x70>
    1e19:	a1 00 00 00 00       	mov    0x0,%eax
    1e1e:	83 c0 08             	add    $0x8,%eax
    1e21:	89 44 24 04          	mov    %eax,0x4(%esp)
    1e25:	c7 04 24 00 00 00 00 	movl   $0x0,(%esp)
    1e2c:	e8 fc ff ff ff       	call   1e2d <liberar_proceso+0x88>
    1e31:	c9                   	leave  
    1e32:	c3                   	ret    

00001e33 <exc_arit>:
    1e33:	55                   	push   %ebp
    1e34:	89 e5                	mov    %esp,%ebp
    1e36:	83 ec 08             	sub    $0x8,%esp
    1e39:	e8 fc ff ff ff       	call   1e3a <exc_arit+0x7>
    1e3e:	85 c0                	test   %eax,%eax
    1e40:	75 0c                	jne    1e4e <exc_arit+0x1b>
    1e42:	c7 04 24 44 3e 00 00 	movl   $0x3e44,(%esp)
    1e49:	e8 fc ff ff ff       	call   1e4a <exc_arit+0x17>
    1e4e:	a1 00 00 00 00       	mov    0x0,%eax
    1e53:	8b 00                	mov    (%eax),%eax
    1e55:	89 44 24 04          	mov    %eax,0x4(%esp)
    1e59:	c7 04 24 7c 3e 00 00 	movl   $0x3e7c,(%esp)
    1e60:	e8 fc ff ff ff       	call   1e61 <exc_arit+0x2e>
    1e65:	e8 3b ff ff ff       	call   1da5 <liberar_proceso>
    1e6a:	c9                   	leave  
    1e6b:	c3                   	ret    

00001e6c <exc_mem>:
    1e6c:	55                   	push   %ebp
    1e6d:	89 e5                	mov    %esp,%ebp
    1e6f:	83 ec 08             	sub    $0x8,%esp
    1e72:	e8 fc ff ff ff       	call   1e73 <exc_mem+0x7>
    1e77:	85 c0                	test   %eax,%eax
    1e79:	75 15                	jne    1e90 <exc_mem+0x24>
    1e7b:	a1 00 00 00 00       	mov    0x0,%eax
    1e80:	85 c0                	test   %eax,%eax
    1e82:	75 0c                	jne    1e90 <exc_mem+0x24>
    1e84:	c7 04 24 a0 3e 00 00 	movl   $0x3ea0,(%esp)
    1e8b:	e8 fc ff ff ff       	call   1e8c <exc_mem+0x20>
    1e90:	a1 00 00 00 00       	mov    0x0,%eax
    1e95:	8b 00                	mov    (%eax),%eax
    1e97:	89 44 24 04          	mov    %eax,0x4(%esp)
    1e9b:	c7 04 24 d8 3e 00 00 	movl   $0x3ed8,(%esp)
    1ea2:	e8 fc ff ff ff       	call   1ea3 <exc_mem+0x37>
    1ea7:	e8 f9 fe ff ff       	call   1da5 <liberar_proceso>
    1eac:	c9                   	leave  
    1ead:	c3                   	ret    

00001eae <int_terminal>:
    1eae:	55                   	push   %ebp
    1eaf:	89 e5                	mov    %esp,%ebp
    1eb1:	83 ec 18             	sub    $0x18,%esp
    1eb4:	c7 04 24 01 00 00 00 	movl   $0x1,(%esp)
    1ebb:	e8 fc ff ff ff       	call   1ebc <int_terminal+0xe>
    1ec0:	88 45 ff             	mov    %al,0xffffffff(%ebp)
    1ec3:	0f be 45 ff          	movsbl 0xffffffff(%ebp),%eax
    1ec7:	89 44 24 04          	mov    %eax,0x4(%esp)
    1ecb:	c7 04 24 fc 3e 00 00 	movl   $0x3efc,(%esp)
    1ed2:	e8 fc ff ff ff       	call   1ed3 <int_terminal+0x25>
    1ed7:	c9                   	leave  
    1ed8:	c3                   	ret    

00001ed9 <int_reloj>:
    1ed9:	55                   	push   %ebp
    1eda:	89 e5                	mov    %esp,%ebp
    1edc:	83 ec 28             	sub    $0x28,%esp
    1edf:	c7 45 f4 00 00 00 00 	movl   $0x0,0xfffffff4(%ebp)
    1ee6:	a1 00 00 00 00       	mov    0x0,%eax
    1eeb:	89 45 f8             	mov    %eax,0xfffffff8(%ebp)
    1eee:	c7 04 24 1d 3f 00 00 	movl   $0x3f1d,(%esp)
    1ef5:	e8 fc ff ff ff       	call   1ef6 <int_reloj+0x1d>
    1efa:	a1 00 00 00 00       	mov    0x0,%eax
    1eff:	85 c0                	test   %eax,%eax
    1f01:	74 54                	je     1f57 <int_reloj+0x7e>
    1f03:	a1 00 00 00 00       	mov    0x0,%eax
    1f08:	8b 40 04             	mov    0x4(%eax),%eax
    1f0b:	83 f8 02             	cmp    $0x2,%eax
    1f0e:	75 47                	jne    1f57 <int_reloj+0x7e>
    1f10:	a1 00 00 00 00       	mov    0x0,%eax
    1f15:	8b 40 04             	mov    0x4(%eax),%eax
    1f18:	89 44 24 04          	mov    %eax,0x4(%esp)
    1f1c:	c7 04 24 38 3f 00 00 	movl   $0x3f38,(%esp)
    1f23:	e8 fc ff ff ff       	call   1f24 <int_reloj+0x4b>
    1f28:	e8 fc ff ff ff       	call   1f29 <int_reloj+0x50>
    1f2d:	85 c0                	test   %eax,%eax
    1f2f:	74 14                	je     1f45 <int_reloj+0x6c>
    1f31:	a1 00 00 00 00       	mov    0x0,%eax
    1f36:	8b 90 8c 01 00 00    	mov    0x18c(%eax),%edx
    1f3c:	42                   	inc    %edx
    1f3d:	89 90 8c 01 00 00    	mov    %edx,0x18c(%eax)
    1f43:	eb 12                	jmp    1f57 <int_reloj+0x7e>
    1f45:	a1 00 00 00 00       	mov    0x0,%eax
    1f4a:	8b 90 90 01 00 00    	mov    0x190(%eax),%edx
    1f50:	42                   	inc    %edx
    1f51:	89 90 90 01 00 00    	mov    %edx,0x190(%eax)
    1f57:	a1 00 00 00 00       	mov    0x0,%eax
    1f5c:	40                   	inc    %eax
    1f5d:	a3 00 00 00 00       	mov    %eax,0x0
    1f62:	83 7d f8 00          	cmpl   $0x0,0xfffffff8(%ebp)
    1f66:	0f 84 e8 00 00 00    	je     2054 <int_reloj+0x17b>
    1f6c:	8b 45 f8             	mov    0xfffffff8(%ebp),%eax
    1f6f:	8b 80 80 01 00 00    	mov    0x180(%eax),%eax
    1f75:	89 45 fc             	mov    %eax,0xfffffffc(%ebp)
    1f78:	e9 d7 00 00 00       	jmp    2054 <int_reloj+0x17b>
    1f7d:	8b 45 f8             	mov    0xfffffff8(%ebp),%eax
    1f80:	8b 80 88 01 00 00    	mov    0x188(%eax),%eax
    1f86:	8d 50 ff             	lea    0xffffffff(%eax),%edx
    1f89:	8b 45 f8             	mov    0xfffffff8(%ebp),%eax
    1f8c:	89 90 88 01 00 00    	mov    %edx,0x188(%eax)
    1f92:	8b 45 f8             	mov    0xfffffff8(%ebp),%eax
    1f95:	8b 80 88 01 00 00    	mov    0x188(%eax),%eax
    1f9b:	85 c0                	test   %eax,%eax
    1f9d:	0f 85 93 00 00 00    	jne    2036 <int_reloj+0x15d>
    1fa3:	83 7d f4 00          	cmpl   $0x0,0xfffffff4(%ebp)
    1fa7:	74 2e                	je     1fd7 <int_reloj+0xfe>
    1fa9:	8b 45 f8             	mov    0xfffffff8(%ebp),%eax
    1fac:	8b 90 80 01 00 00    	mov    0x180(%eax),%edx
    1fb2:	8b 45 f8             	mov    0xfffffff8(%ebp),%eax
    1fb5:	8b 00                	mov    (%eax),%eax
    1fb7:	89 54 24 08          	mov    %edx,0x8(%esp)
    1fbb:	89 44 24 04          	mov    %eax,0x4(%esp)
    1fbf:	c7 04 24 58 3f 00 00 	movl   $0x3f58,(%esp)
    1fc6:	e8 fc ff ff ff       	call   1fc7 <int_reloj+0xee>
    1fcb:	8b 55 f4             	mov    0xfffffff4(%ebp),%edx
    1fce:	8b 45 fc             	mov    0xfffffffc(%ebp),%eax
    1fd1:	89 82 80 01 00 00    	mov    %eax,0x180(%edx)
    1fd7:	8b 45 f8             	mov    0xfffffff8(%ebp),%eax
    1fda:	c7 40 04 01 00 00 00 	movl   $0x1,0x4(%eax)
    1fe1:	8b 45 f8             	mov    0xfffffff8(%ebp),%eax
    1fe4:	8b 00                	mov    (%eax),%eax
    1fe6:	89 44 24 04          	mov    %eax,0x4(%esp)
    1fea:	c7 04 24 6e 3f 00 00 	movl   $0x3f6e,(%esp)
    1ff1:	e8 fc ff ff ff       	call   1ff2 <int_reloj+0x119>
    1ff6:	8b 45 f8             	mov    0xfffffff8(%ebp),%eax
    1ff9:	89 44 24 04          	mov    %eax,0x4(%esp)
    1ffd:	c7 04 24 00 00 00 00 	movl   $0x0,(%esp)
    2004:	e8 ae fc ff ff       	call   1cb7 <eliminar_elem>
    2009:	8b 45 f8             	mov    0xfffffff8(%ebp),%eax
    200c:	89 44 24 04          	mov    %eax,0x4(%esp)
    2010:	c7 04 24 00 00 00 00 	movl   $0x0,(%esp)
    2017:	e8 30 fc ff ff       	call   1c4c <insertar_ultimo>
    201c:	8b 45 fc             	mov    0xfffffffc(%ebp),%eax
    201f:	89 45 f8             	mov    %eax,0xfffffff8(%ebp)
    2022:	83 7d fc 00          	cmpl   $0x0,0xfffffffc(%ebp)
    2026:	74 2c                	je     2054 <int_reloj+0x17b>
    2028:	8b 45 fc             	mov    0xfffffffc(%ebp),%eax
    202b:	8b 80 80 01 00 00    	mov    0x180(%eax),%eax
    2031:	89 45 fc             	mov    %eax,0xfffffffc(%ebp)
    2034:	eb 1e                	jmp    2054 <int_reloj+0x17b>
    2036:	8b 45 f8             	mov    0xfffffff8(%ebp),%eax
    2039:	89 45 f4             	mov    %eax,0xfffffff4(%ebp)
    203c:	8b 45 fc             	mov    0xfffffffc(%ebp),%eax
    203f:	89 45 f8             	mov    %eax,0xfffffff8(%ebp)
    2042:	83 7d fc 00          	cmpl   $0x0,0xfffffffc(%ebp)
    2046:	74 0c                	je     2054 <int_reloj+0x17b>
    2048:	8b 45 fc             	mov    0xfffffffc(%ebp),%eax
    204b:	8b 80 80 01 00 00    	mov    0x180(%eax),%eax
    2051:	89 45 fc             	mov    %eax,0xfffffffc(%ebp)
    2054:	83 7d f8 00          	cmpl   $0x0,0xfffffff8(%ebp)
    2058:	0f 85 1f ff ff ff    	jne    1f7d <int_reloj+0xa4>
    205e:	c9                   	leave  
    205f:	c3                   	ret    

00002060 <tratar_llamsis>:
    2060:	55                   	push   %ebp
    2061:	89 e5                	mov    %esp,%ebp
    2063:	83 ec 18             	sub    $0x18,%esp
    2066:	c7 04 24 00 00 00 00 	movl   $0x0,(%esp)
    206d:	e8 fc ff ff ff       	call   206e <tratar_llamsis+0xe>
    2072:	89 45 f8             	mov    %eax,0xfffffff8(%ebp)
    2075:	83 7d f8 0a          	cmpl   $0xa,0xfffffff8(%ebp)
    2079:	7f 11                	jg     208c <tratar_llamsis+0x2c>
    207b:	8b 45 f8             	mov    0xfffffff8(%ebp),%eax
    207e:	8b 04 85 00 00 00 00 	mov    0x0(,%eax,4),%eax
    2085:	ff d0                	call   *%eax
    2087:	89 45 fc             	mov    %eax,0xfffffffc(%ebp)
    208a:	eb 07                	jmp    2093 <tratar_llamsis+0x33>
    208c:	c7 45 fc ff ff ff ff 	movl   $0xffffffff,0xfffffffc(%ebp)
    2093:	8b 45 fc             	mov    0xfffffffc(%ebp),%eax
    2096:	89 44 24 04          	mov    %eax,0x4(%esp)
    209a:	c7 04 24 00 00 00 00 	movl   $0x0,(%esp)
    20a1:	e8 fc ff ff ff       	call   20a2 <tratar_llamsis+0x42>
    20a6:	c9                   	leave  
    20a7:	c3                   	ret    

000020a8 <int_sw>:
    20a8:	55                   	push   %ebp
    20a9:	89 e5                	mov    %esp,%ebp
    20ab:	83 ec 08             	sub    $0x8,%esp
    20ae:	c7 04 24 7b 3f 00 00 	movl   $0x3f7b,(%esp)
    20b5:	e8 fc ff ff ff       	call   20b6 <int_sw+0xe>
    20ba:	c9                   	leave  
    20bb:	c3                   	ret    

000020bc <crear_tarea>:
    20bc:	55                   	push   %ebp
    20bd:	89 e5                	mov    %esp,%ebp
    20bf:	53                   	push   %ebx
    20c0:	83 ec 44             	sub    $0x44,%esp
    20c3:	c7 45 f0 00 00 00 00 	movl   $0x0,0xfffffff0(%ebp)
    20ca:	e8 34 fb ff ff       	call   1c03 <buscar_BCP_libre>
    20cf:	89 45 f4             	mov    %eax,0xfffffff4(%ebp)
    20d2:	83 7d f4 ff          	cmpl   $0xffffffff,0xfffffff4(%ebp)
    20d6:	75 0c                	jne    20e4 <crear_tarea+0x28>
    20d8:	c7 45 d8 ff ff ff ff 	movl   $0xffffffff,0xffffffd8(%ebp)
    20df:	e9 f6 00 00 00       	jmp    21da <crear_tarea+0x11e>
    20e4:	8b 55 f4             	mov    0xfffffff4(%ebp),%edx
    20e7:	89 d0                	mov    %edx,%eax
    20e9:	01 c0                	add    %eax,%eax
    20eb:	01 d0                	add    %edx,%eax
    20ed:	89 c2                	mov    %eax,%edx
    20ef:	c1 e2 04             	shl    $0x4,%edx
    20f2:	01 d0                	add    %edx,%eax
    20f4:	c1 e0 03             	shl    $0x3,%eax
    20f7:	05 00 00 00 00       	add    $0x0,%eax
    20fc:	89 45 f8             	mov    %eax,0xfffffff8(%ebp)
    20ff:	8d 45 e8             	lea    0xffffffe8(%ebp),%eax
    2102:	89 44 24 04          	mov    %eax,0x4(%esp)
    2106:	8b 45 08             	mov    0x8(%ebp),%eax
    2109:	89 04 24             	mov    %eax,(%esp)
    210c:	e8 fc ff ff ff       	call   210d <crear_tarea+0x51>
    2111:	89 45 ec             	mov    %eax,0xffffffec(%ebp)
    2114:	83 7d ec 00          	cmpl   $0x0,0xffffffec(%ebp)
    2118:	0f 84 af 00 00 00    	je     21cd <crear_tarea+0x111>
    211e:	8b 55 f8             	mov    0xfffffff8(%ebp),%edx
    2121:	8b 45 ec             	mov    0xffffffec(%ebp),%eax
    2124:	89 82 84 01 00 00    	mov    %eax,0x184(%edx)
    212a:	c7 04 24 00 80 00 00 	movl   $0x8000,(%esp)
    2131:	e8 fc ff ff ff       	call   2132 <crear_tarea+0x76>
    2136:	89 c2                	mov    %eax,%edx
    2138:	8b 45 f8             	mov    0xfffffff8(%ebp),%eax
    213b:	89 90 7c 01 00 00    	mov    %edx,0x17c(%eax)
    2141:	8b 55 f8             	mov    0xfffffff8(%ebp),%edx
    2144:	83 c2 08             	add    $0x8,%edx
    2147:	8b 4d e8             	mov    0xffffffe8(%ebp),%ecx
    214a:	8b 45 f8             	mov    0xfffffff8(%ebp),%eax
    214d:	8b 98 7c 01 00 00    	mov    0x17c(%eax),%ebx
    2153:	8b 45 f8             	mov    0xfffffff8(%ebp),%eax
    2156:	8b 80 84 01 00 00    	mov    0x184(%eax),%eax
    215c:	89 54 24 10          	mov    %edx,0x10(%esp)
    2160:	89 4c 24 0c          	mov    %ecx,0xc(%esp)
    2164:	c7 44 24 08 00 80 00 	movl   $0x8000,0x8(%esp)
    216b:	00 
    216c:	89 5c 24 04          	mov    %ebx,0x4(%esp)
    2170:	89 04 24             	mov    %eax,(%esp)
    2173:	e8 fc ff ff ff       	call   2174 <crear_tarea+0xb8>
    2178:	8b 55 f8             	mov    0xfffffff8(%ebp),%edx
    217b:	8b 45 f4             	mov    0xfffffff4(%ebp),%eax
    217e:	89 02                	mov    %eax,(%edx)
    2180:	8b 45 f8             	mov    0xfffffff8(%ebp),%eax
    2183:	c7 40 04 01 00 00 00 	movl   $0x1,0x4(%eax)
    218a:	8b 45 f8             	mov    0xfffffff8(%ebp),%eax
    218d:	c7 80 88 01 00 00 00 	movl   $0x0,0x188(%eax)
    2194:	00 00 00 
    2197:	8b 45 f8             	mov    0xfffffff8(%ebp),%eax
    219a:	c7 80 8c 01 00 00 00 	movl   $0x0,0x18c(%eax)
    21a1:	00 00 00 
    21a4:	8b 45 f8             	mov    0xfffffff8(%ebp),%eax
    21a7:	c7 80 90 01 00 00 00 	movl   $0x0,0x190(%eax)
    21ae:	00 00 00 
    21b1:	8b 45 f8             	mov    0xfffffff8(%ebp),%eax
    21b4:	89 44 24 04          	mov    %eax,0x4(%esp)
    21b8:	c7 04 24 00 00 00 00 	movl   $0x0,(%esp)
    21bf:	e8 88 fa ff ff       	call   1c4c <insertar_ultimo>
    21c4:	c7 45 f0 00 00 00 00 	movl   $0x0,0xfffffff0(%ebp)
    21cb:	eb 07                	jmp    21d4 <crear_tarea+0x118>
    21cd:	c7 45 f0 ff ff ff ff 	movl   $0xffffffff,0xfffffff0(%ebp)
    21d4:	8b 45 f0             	mov    0xfffffff0(%ebp),%eax
    21d7:	89 45 d8             	mov    %eax,0xffffffd8(%ebp)
    21da:	8b 45 d8             	mov    0xffffffd8(%ebp),%eax
    21dd:	83 c4 44             	add    $0x44,%esp
    21e0:	5b                   	pop    %ebx
    21e1:	5d                   	pop    %ebp
    21e2:	c3                   	ret    

000021e3 <sis_crear_proceso>:
    21e3:	55                   	push   %ebp
    21e4:	89 e5                	mov    %esp,%ebp
    21e6:	83 ec 18             	sub    $0x18,%esp
    21e9:	c7 04 24 03 00 00 00 	movl   $0x3,(%esp)
    21f0:	e8 fc ff ff ff       	call   21f1 <sis_crear_proceso+0xe>
    21f5:	89 45 fc             	mov    %eax,0xfffffffc(%ebp)
    21f8:	a1 00 00 00 00       	mov    0x0,%eax
    21fd:	8b 00                	mov    (%eax),%eax
    21ff:	89 44 24 04          	mov    %eax,0x4(%esp)
    2203:	c7 04 24 90 3f 00 00 	movl   $0x3f90,(%esp)
    220a:	e8 fc ff ff ff       	call   220b <sis_crear_proceso+0x28>
    220f:	c7 04 24 01 00 00 00 	movl   $0x1,(%esp)
    2216:	e8 fc ff ff ff       	call   2217 <sis_crear_proceso+0x34>
    221b:	89 45 f4             	mov    %eax,0xfffffff4(%ebp)
    221e:	8b 45 f4             	mov    0xfffffff4(%ebp),%eax
    2221:	89 04 24             	mov    %eax,(%esp)
    2224:	e8 93 fe ff ff       	call   20bc <crear_tarea>
    2229:	89 45 f8             	mov    %eax,0xfffffff8(%ebp)
    222c:	8b 45 fc             	mov    0xfffffffc(%ebp),%eax
    222f:	89 04 24             	mov    %eax,(%esp)
    2232:	e8 fc ff ff ff       	call   2233 <sis_crear_proceso+0x50>
    2237:	8b 45 f8             	mov    0xfffffff8(%ebp),%eax
    223a:	c9                   	leave  
    223b:	c3                   	ret    

0000223c <sis_escribir>:
    223c:	55                   	push   %ebp
    223d:	89 e5                	mov    %esp,%ebp
    223f:	83 ec 18             	sub    $0x18,%esp
    2242:	c7 04 24 01 00 00 00 	movl   $0x1,(%esp)
    2249:	e8 fc ff ff ff       	call   224a <sis_escribir+0xe>
    224e:	89 45 f8             	mov    %eax,0xfffffff8(%ebp)
    2251:	c7 04 24 02 00 00 00 	movl   $0x2,(%esp)
    2258:	e8 fc ff ff ff       	call   2259 <sis_escribir+0x1d>
    225d:	89 45 fc             	mov    %eax,0xfffffffc(%ebp)
    2260:	8b 45 fc             	mov    0xfffffffc(%ebp),%eax
    2263:	89 44 24 04          	mov    %eax,0x4(%esp)
    2267:	8b 45 f8             	mov    0xfffffff8(%ebp),%eax
    226a:	89 04 24             	mov    %eax,(%esp)
    226d:	e8 fc ff ff ff       	call   226e <sis_escribir+0x32>
    2272:	b8 00 00 00 00       	mov    $0x0,%eax
    2277:	c9                   	leave  
    2278:	c3                   	ret    

00002279 <sis_terminar_proceso>:
    2279:	55                   	push   %ebp
    227a:	89 e5                	mov    %esp,%ebp
    227c:	83 ec 08             	sub    $0x8,%esp
    227f:	a1 00 00 00 00       	mov    0x0,%eax
    2284:	8b 00                	mov    (%eax),%eax
    2286:	89 44 24 04          	mov    %eax,0x4(%esp)
    228a:	c7 04 24 ab 3f 00 00 	movl   $0x3fab,(%esp)
    2291:	e8 fc ff ff ff       	call   2292 <sis_terminar_proceso+0x19>
    2296:	e8 0a fb ff ff       	call   1da5 <liberar_proceso>
    229b:	b8 00 00 00 00       	mov    $0x0,%eax
    22a0:	c9                   	leave  
    22a1:	c3                   	ret    

000022a2 <sis_obtener_id_pr>:
    22a2:	55                   	push   %ebp
    22a3:	89 e5                	mov    %esp,%ebp
    22a5:	83 ec 18             	sub    $0x18,%esp
    22a8:	a1 00 00 00 00       	mov    0x0,%eax
    22ad:	8b 00                	mov    (%eax),%eax
    22af:	89 45 fc             	mov    %eax,0xfffffffc(%ebp)
    22b2:	8b 45 fc             	mov    0xfffffffc(%ebp),%eax
    22b5:	89 44 24 04          	mov    %eax,0x4(%esp)
    22b9:	c7 04 24 be 3f 00 00 	movl   $0x3fbe,(%esp)
    22c0:	e8 fc ff ff ff       	call   22c1 <sis_obtener_id_pr+0x1f>
    22c5:	8b 45 fc             	mov    0xfffffffc(%ebp),%eax
    22c8:	c9                   	leave  
    22c9:	c3                   	ret    

000022ca <sis_dormir>:
    22ca:	55                   	push   %ebp
    22cb:	89 e5                	mov    %esp,%ebp
    22cd:	83 ec 28             	sub    $0x28,%esp
    22d0:	c7 04 24 01 00 00 00 	movl   $0x1,(%esp)
    22d7:	e8 fc ff ff ff       	call   22d8 <sis_dormir+0xe>
    22dc:	89 45 f0             	mov    %eax,0xfffffff0(%ebp)
    22df:	8b 55 f0             	mov    0xfffffff0(%ebp),%edx
    22e2:	89 d0                	mov    %edx,%eax
    22e4:	c1 e0 02             	shl    $0x2,%eax
    22e7:	01 d0                	add    %edx,%eax
    22e9:	8d 14 85 00 00 00 00 	lea    0x0(,%eax,4),%edx
    22f0:	01 d0                	add    %edx,%eax
    22f2:	c1 e0 02             	shl    $0x2,%eax
    22f5:	89 45 f4             	mov    %eax,0xfffffff4(%ebp)
    22f8:	83 7d f4 00          	cmpl   $0x0,0xfffffff4(%ebp)
    22fc:	0f 84 a9 00 00 00    	je     23ab <sis_dormir+0xe1>
    2302:	8b 45 f4             	mov    0xfffffff4(%ebp),%eax
    2305:	89 44 24 08          	mov    %eax,0x8(%esp)
    2309:	8b 45 f0             	mov    0xfffffff0(%ebp),%eax
    230c:	89 44 24 04          	mov    %eax,0x4(%esp)
    2310:	c7 04 24 dc 3f 00 00 	movl   $0x3fdc,(%esp)
    2317:	e8 fc ff ff ff       	call   2318 <sis_dormir+0x4e>
    231c:	c7 04 24 03 00 00 00 	movl   $0x3,(%esp)
    2323:	e8 fc ff ff ff       	call   2324 <sis_dormir+0x5a>
    2328:	89 45 fc             	mov    %eax,0xfffffffc(%ebp)
    232b:	8b 15 00 00 00 00    	mov    0x0,%edx
    2331:	8b 45 fc             	mov    0xfffffffc(%ebp),%eax
    2334:	89 82 94 01 00 00    	mov    %eax,0x194(%edx)
    233a:	8b 15 00 00 00 00    	mov    0x0,%edx
    2340:	8b 45 f4             	mov    0xfffffff4(%ebp),%eax
    2343:	89 82 88 01 00 00    	mov    %eax,0x188(%edx)
    2349:	a1 00 00 00 00       	mov    0x0,%eax
    234e:	c7 40 04 03 00 00 00 	movl   $0x3,0x4(%eax)
    2355:	a1 00 00 00 00       	mov    0x0,%eax
    235a:	89 45 f8             	mov    %eax,0xfffffff8(%ebp)
    235d:	a1 00 00 00 00       	mov    0x0,%eax
    2362:	89 44 24 04          	mov    %eax,0x4(%esp)
    2366:	c7 04 24 00 00 00 00 	movl   $0x0,(%esp)
    236d:	e8 45 f9 ff ff       	call   1cb7 <eliminar_elem>
    2372:	a1 00 00 00 00       	mov    0x0,%eax
    2377:	89 44 24 04          	mov    %eax,0x4(%esp)
    237b:	c7 04 24 00 00 00 00 	movl   $0x0,(%esp)
    2382:	e8 c5 f8 ff ff       	call   1c4c <insertar_ultimo>
    2387:	e8 dd f9 ff ff       	call   1d69 <planificador>
    238c:	a3 00 00 00 00       	mov    %eax,0x0
    2391:	a1 00 00 00 00       	mov    0x0,%eax
    2396:	83 c0 08             	add    $0x8,%eax
    2399:	8b 55 f8             	mov    0xfffffff8(%ebp),%edx
    239c:	83 c2 08             	add    $0x8,%edx
    239f:	89 44 24 04          	mov    %eax,0x4(%esp)
    23a3:	89 14 24             	mov    %edx,(%esp)
    23a6:	e8 fc ff ff ff       	call   23a7 <sis_dormir+0xdd>
    23ab:	8b 45 f0             	mov    0xfffffff0(%ebp),%eax
    23ae:	c9                   	leave  
    23af:	c3                   	ret    

000023b0 <sis_tiempos_proceso>:
    23b0:	55                   	push   %ebp
    23b1:	89 e5                	mov    %esp,%ebp
    23b3:	83 ec 18             	sub    $0x18,%esp
    23b6:	c7 45 f8 00 00 00 00 	movl   $0x0,0xfffffff8(%ebp)
    23bd:	c7 04 24 03 00 00 00 	movl   $0x3,(%esp)
    23c4:	e8 fc ff ff ff       	call   23c5 <sis_tiempos_proceso+0x15>
    23c9:	89 45 fc             	mov    %eax,0xfffffffc(%ebp)
    23cc:	c7 04 24 01 00 00 00 	movl   $0x1,(%esp)
    23d3:	e8 fc ff ff ff       	call   23d4 <sis_tiempos_proceso+0x24>
    23d8:	89 45 f4             	mov    %eax,0xfffffff4(%ebp)
    23db:	c7 04 24 14 40 00 00 	movl   $0x4014,(%esp)
    23e2:	e8 fc ff ff ff       	call   23e3 <sis_tiempos_proceso+0x33>
    23e7:	83 7d f4 00          	cmpl   $0x0,0xfffffff4(%ebp)
    23eb:	75 17                	jne    2404 <sis_tiempos_proceso+0x54>
    23ed:	a1 00 00 00 00       	mov    0x0,%eax
    23f2:	89 44 24 04          	mov    %eax,0x4(%esp)
    23f6:	c7 04 24 4c 40 00 00 	movl   $0x404c,(%esp)
    23fd:	e8 fc ff ff ff       	call   23fe <sis_tiempos_proceso+0x4e>
    2402:	eb 35                	jmp    2439 <sis_tiempos_proceso+0x89>
    2404:	c7 05 00 00 00 00 01 	movl   $0x1,0x0
    240b:	00 00 00 
    240e:	a1 00 00 00 00       	mov    0x0,%eax
    2413:	8b 90 8c 01 00 00    	mov    0x18c(%eax),%edx
    2419:	8b 45 f4             	mov    0xfffffff4(%ebp),%eax
    241c:	89 10                	mov    %edx,(%eax)
    241e:	a1 00 00 00 00       	mov    0x0,%eax
    2423:	8b 90 90 01 00 00    	mov    0x190(%eax),%edx
    2429:	8b 45 f4             	mov    0xfffffff4(%ebp),%eax
    242c:	89 50 04             	mov    %edx,0x4(%eax)
    242f:	c7 05 00 00 00 00 00 	movl   $0x0,0x0
    2436:	00 00 00 
    2439:	8b 45 fc             	mov    0xfffffffc(%ebp),%eax
    243c:	89 04 24             	mov    %eax,(%esp)
    243f:	e8 fc ff ff ff       	call   2440 <sis_tiempos_proceso+0x90>
    2444:	a1 00 00 00 00       	mov    0x0,%eax
    2449:	c9                   	leave  
    244a:	c3                   	ret    

0000244b <sis_crear_mutex>:
    244b:	55                   	push   %ebp
    244c:	89 e5                	mov    %esp,%ebp
    244e:	83 ec 28             	sub    $0x28,%esp
    2451:	c7 04 24 01 00 00 00 	movl   $0x1,(%esp)
    2458:	e8 fc ff ff ff       	call   2459 <sis_crear_mutex+0xe>
    245d:	89 45 f0             	mov    %eax,0xfffffff0(%ebp)
    2460:	c7 04 24 02 00 00 00 	movl   $0x2,(%esp)
    2467:	e8 fc ff ff ff       	call   2468 <sis_crear_mutex+0x1d>
    246c:	89 45 f4             	mov    %eax,0xfffffff4(%ebp)
    246f:	c7 45 f8 00 00 00 00 	movl   $0x0,0xfffffff8(%ebp)
    2476:	c7 45 fc 00 00 00 00 	movl   $0x0,0xfffffffc(%ebp)
    247d:	c7 04 24 70 40 00 00 	movl   $0x4070,(%esp)
    2484:	e8 fc ff ff ff       	call   2485 <sis_crear_mutex+0x3a>
    2489:	e9 a0 00 00 00       	jmp    252e <sis_crear_mutex+0xe3>
    248e:	8b 55 f8             	mov    0xfffffff8(%ebp),%edx
    2491:	89 d0                	mov    %edx,%eax
    2493:	c1 e0 02             	shl    $0x2,%eax
    2496:	01 d0                	add    %edx,%eax
    2498:	c1 e0 03             	shl    $0x3,%eax
    249b:	05 00 00 00 00       	add    $0x0,%eax
    24a0:	8d 50 04             	lea    0x4(%eax),%edx
    24a3:	c7 44 24 08 10 00 00 	movl   $0x10,0x8(%esp)
    24aa:	00 
    24ab:	8b 45 f0             	mov    0xfffffff0(%ebp),%eax
    24ae:	89 44 24 04          	mov    %eax,0x4(%esp)
    24b2:	89 14 24             	mov    %edx,(%esp)
    24b5:	e8 fc ff ff ff       	call   24b6 <sis_crear_mutex+0x6b>
    24ba:	85 c0                	test   %eax,%eax
    24bc:	74 09                	je     24c7 <sis_crear_mutex+0x7c>
    24be:	c7 45 fc ff ff ff ff 	movl   $0xffffffff,0xfffffffc(%ebp)
    24c5:	eb 67                	jmp    252e <sis_crear_mutex+0xe3>
    24c7:	8b 55 f8             	mov    0xfffffff8(%ebp),%edx
    24ca:	89 d0                	mov    %edx,%eax
    24cc:	c1 e0 02             	shl    $0x2,%eax
    24cf:	01 d0                	add    %edx,%eax
    24d1:	c1 e0 03             	shl    $0x3,%eax
    24d4:	05 00 00 00 00       	add    $0x0,%eax
    24d9:	83 c0 04             	add    $0x4,%eax
    24dc:	0f b6 00             	movzbl (%eax),%eax
    24df:	84 c0                	test   %al,%al
    24e1:	75 05                	jne    24e8 <sis_crear_mutex+0x9d>
    24e3:	ff 45 f8             	incl   0xfffffff8(%ebp)
    24e6:	eb 46                	jmp    252e <sis_crear_mutex+0xe3>
    24e8:	8b 55 f8             	mov    0xfffffff8(%ebp),%edx
    24eb:	89 d0                	mov    %edx,%eax
    24ed:	c1 e0 02             	shl    $0x2,%eax
    24f0:	01 d0                	add    %edx,%eax
    24f2:	c1 e0 03             	shl    $0x3,%eax
    24f5:	05 00 00 00 00       	add    $0x0,%eax
    24fa:	8d 50 04             	lea    0x4(%eax),%edx
    24fd:	c7 44 24 08 08 00 00 	movl   $0x8,0x8(%esp)
    2504:	00 
    2505:	8b 45 f0             	mov    0xfffffff0(%ebp),%eax
    2508:	89 44 24 04          	mov    %eax,0x4(%esp)
    250c:	89 14 24             	mov    %edx,(%esp)
    250f:	e8 fc ff ff ff       	call   2510 <sis_crear_mutex+0xc5>
    2514:	8b 55 f8             	mov    0xfffffff8(%ebp),%edx
    2517:	89 d0                	mov    %edx,%eax
    2519:	c1 e0 02             	shl    $0x2,%eax
    251c:	01 d0                	add    %edx,%eax
    251e:	8d 14 c5 00 00 00 00 	lea    0x0(,%eax,8),%edx
    2525:	8b 45 f4             	mov    0xfffffff4(%ebp),%eax
    2528:	89 82 00 00 00 00    	mov    %eax,0x0(%edx)
    252e:	83 7d f8 0f          	cmpl   $0xf,0xfffffff8(%ebp)
    2532:	7f 0a                	jg     253e <sis_crear_mutex+0xf3>
    2534:	83 7d fc 00          	cmpl   $0x0,0xfffffffc(%ebp)
    2538:	0f 84 50 ff ff ff    	je     248e <sis_crear_mutex+0x43>
    253e:	83 7d fc 00          	cmpl   $0x0,0xfffffffc(%ebp)
    2542:	74 09                	je     254d <sis_crear_mutex+0x102>
    2544:	c7 45 ec ff ff ff ff 	movl   $0xffffffff,0xffffffec(%ebp)
    254b:	eb 06                	jmp    2553 <sis_crear_mutex+0x108>
    254d:	8b 45 f8             	mov    0xfffffff8(%ebp),%eax
    2550:	89 45 ec             	mov    %eax,0xffffffec(%ebp)
    2553:	8b 45 ec             	mov    0xffffffec(%ebp),%eax
    2556:	c9                   	leave  
    2557:	c3                   	ret    

00002558 <sis_abrir_mutex>:
    2558:	55                   	push   %ebp
    2559:	89 e5                	mov    %esp,%ebp
    255b:	83 ec 28             	sub    $0x28,%esp
    255e:	c7 45 f8 00 00 00 00 	movl   $0x0,0xfffffff8(%ebp)
    2565:	c7 45 fc 00 00 00 00 	movl   $0x0,0xfffffffc(%ebp)
    256c:	c7 04 24 01 00 00 00 	movl   $0x1,(%esp)
    2573:	e8 fc ff ff ff       	call   2574 <sis_abrir_mutex+0x1c>
    2578:	89 45 f4             	mov    %eax,0xfffffff4(%ebp)
    257b:	c7 04 24 94 40 00 00 	movl   $0x4094,(%esp)
    2582:	e8 fc ff ff ff       	call   2583 <sis_abrir_mutex+0x2b>
    2587:	eb 3c                	jmp    25c5 <sis_abrir_mutex+0x6d>
    2589:	8b 55 fc             	mov    0xfffffffc(%ebp),%edx
    258c:	89 d0                	mov    %edx,%eax
    258e:	c1 e0 02             	shl    $0x2,%eax
    2591:	01 d0                	add    %edx,%eax
    2593:	c1 e0 03             	shl    $0x3,%eax
    2596:	05 00 00 00 00       	add    $0x0,%eax
    259b:	8d 50 04             	lea    0x4(%eax),%edx
    259e:	c7 44 24 08 10 00 00 	movl   $0x10,0x8(%esp)
    25a5:	00 
    25a6:	8b 45 f4             	mov    0xfffffff4(%ebp),%eax
    25a9:	89 44 24 04          	mov    %eax,0x4(%esp)
    25ad:	89 14 24             	mov    %edx,(%esp)
    25b0:	e8 fc ff ff ff       	call   25b1 <sis_abrir_mutex+0x59>
    25b5:	85 c0                	test   %eax,%eax
    25b7:	74 09                	je     25c2 <sis_abrir_mutex+0x6a>
    25b9:	c7 45 f8 01 00 00 00 	movl   $0x1,0xfffffff8(%ebp)
    25c0:	eb 03                	jmp    25c5 <sis_abrir_mutex+0x6d>
    25c2:	ff 45 fc             	incl   0xfffffffc(%ebp)
    25c5:	83 7d fc 0f          	cmpl   $0xf,0xfffffffc(%ebp)
    25c9:	7f 06                	jg     25d1 <sis_abrir_mutex+0x79>
    25cb:	83 7d f8 00          	cmpl   $0x0,0xfffffff8(%ebp)
    25cf:	74 b8                	je     2589 <sis_abrir_mutex+0x31>
    25d1:	83 7d f8 00          	cmpl   $0x0,0xfffffff8(%ebp)
    25d5:	75 09                	jne    25e0 <sis_abrir_mutex+0x88>
    25d7:	c7 45 ec ff ff ff ff 	movl   $0xffffffff,0xffffffec(%ebp)
    25de:	eb 06                	jmp    25e6 <sis_abrir_mutex+0x8e>
    25e0:	8b 45 fc             	mov    0xfffffffc(%ebp),%eax
    25e3:	89 45 ec             	mov    %eax,0xffffffec(%ebp)
    25e6:	8b 45 ec             	mov    0xffffffec(%ebp),%eax
    25e9:	c9                   	leave  
    25ea:	c3                   	ret    

000025eb <sis_lock>:
    25eb:	55                   	push   %ebp
    25ec:	89 e5                	mov    %esp,%ebp
    25ee:	53                   	push   %ebx
    25ef:	83 ec 24             	sub    $0x24,%esp
    25f2:	c7 45 f0 00 00 00 00 	movl   $0x0,0xfffffff0(%ebp)
    25f9:	c7 45 f4 01 00 00 00 	movl   $0x1,0xfffffff4(%ebp)
    2600:	c7 45 f8 00 00 00 00 	movl   $0x0,0xfffffff8(%ebp)
    2607:	c7 04 24 01 00 00 00 	movl   $0x1,(%esp)
    260e:	e8 fc ff ff ff       	call   260f <sis_lock+0x24>
    2613:	89 45 ec             	mov    %eax,0xffffffec(%ebp)
    2616:	c7 04 24 b8 40 00 00 	movl   $0x40b8,(%esp)
    261d:	e8 fc ff ff ff       	call   261e <sis_lock+0x33>
    2622:	83 7d ec 0f          	cmpl   $0xf,0xffffffec(%ebp)
    2626:	76 0c                	jbe    2634 <sis_lock+0x49>
    2628:	c7 45 e8 ff ff ff ff 	movl   $0xffffffff,0xffffffe8(%ebp)
    262f:	e9 fa 02 00 00       	jmp    292e <sis_lock+0x343>
    2634:	8b 55 ec             	mov    0xffffffec(%ebp),%edx
    2637:	89 d0                	mov    %edx,%eax
    2639:	c1 e0 02             	shl    $0x2,%eax
    263c:	01 d0                	add    %edx,%eax
    263e:	c1 e0 03             	shl    $0x3,%eax
    2641:	8b 80 00 00 00 00    	mov    0x0(%eax),%eax
    2647:	83 f8 01             	cmp    $0x1,%eax
    264a:	0f 85 9a 01 00 00    	jne    27ea <sis_lock+0x1ff>
    2650:	e9 7c 01 00 00       	jmp    27d1 <sis_lock+0x1e6>
    2655:	8b 55 ec             	mov    0xffffffec(%ebp),%edx
    2658:	89 d0                	mov    %edx,%eax
    265a:	c1 e0 02             	shl    $0x2,%eax
    265d:	01 d0                	add    %edx,%eax
    265f:	c1 e0 03             	shl    $0x3,%eax
    2662:	8b 80 0c 00 00 00    	mov    0xc(%eax),%eax
    2668:	85 c0                	test   %eax,%eax
    266a:	74 2b                	je     2697 <sis_lock+0xac>
    266c:	8b 55 ec             	mov    0xffffffec(%ebp),%edx
    266f:	89 d0                	mov    %edx,%eax
    2671:	c1 e0 02             	shl    $0x2,%eax
    2674:	01 d0                	add    %edx,%eax
    2676:	c1 e0 03             	shl    $0x3,%eax
    2679:	8b 80 24 00 00 00    	mov    0x24(%eax),%eax
    267f:	8d 48 01             	lea    0x1(%eax),%ecx
    2682:	89 d0                	mov    %edx,%eax
    2684:	c1 e0 02             	shl    $0x2,%eax
    2687:	01 d0                	add    %edx,%eax
    2689:	c1 e0 03             	shl    $0x3,%eax
    268c:	89 88 24 00 00 00    	mov    %ecx,0x24(%eax)
    2692:	e9 3a 01 00 00       	jmp    27d1 <sis_lock+0x1e6>
    2697:	8b 55 ec             	mov    0xffffffec(%ebp),%edx
    269a:	8b 0d 00 00 00 00    	mov    0x0,%ecx
    26a0:	89 d0                	mov    %edx,%eax
    26a2:	c1 e0 02             	shl    $0x2,%eax
    26a5:	01 d0                	add    %edx,%eax
    26a7:	c1 e0 03             	shl    $0x3,%eax
    26aa:	89 88 0c 00 00 00    	mov    %ecx,0xc(%eax)
    26b0:	8b 55 ec             	mov    0xffffffec(%ebp),%edx
    26b3:	89 d0                	mov    %edx,%eax
    26b5:	c1 e0 02             	shl    $0x2,%eax
    26b8:	01 d0                	add    %edx,%eax
    26ba:	c1 e0 03             	shl    $0x3,%eax
    26bd:	c7 80 24 00 00 00 01 	movl   $0x1,0x24(%eax)
    26c4:	00 00 00 
    26c7:	eb 2d                	jmp    26f6 <sis_lock+0x10b>
    26c9:	8b 55 ec             	mov    0xffffffec(%ebp),%edx
    26cc:	8b 4d f0             	mov    0xfffffff0(%ebp),%ecx
    26cf:	89 d0                	mov    %edx,%eax
    26d1:	c1 e0 02             	shl    $0x2,%eax
    26d4:	01 d0                	add    %edx,%eax
    26d6:	01 c0                	add    %eax,%eax
    26d8:	01 c8                	add    %ecx,%eax
    26da:	8b 14 85 10 00 00 00 	mov    0x10(,%eax,4),%edx
    26e1:	a1 00 00 00 00       	mov    0x0,%eax
    26e6:	39 c2                	cmp    %eax,%edx
    26e8:	75 09                	jne    26f3 <sis_lock+0x108>
    26ea:	c7 45 f4 00 00 00 00 	movl   $0x0,0xfffffff4(%ebp)
    26f1:	eb 03                	jmp    26f6 <sis_lock+0x10b>
    26f3:	ff 45 f0             	incl   0xfffffff0(%ebp)
    26f6:	83 7d f0 03          	cmpl   $0x3,0xfffffff0(%ebp)
    26fa:	7f 06                	jg     2702 <sis_lock+0x117>
    26fc:	83 7d f4 00          	cmpl   $0x0,0xfffffff4(%ebp)
    2700:	75 c7                	jne    26c9 <sis_lock+0xde>
    2702:	83 7d f4 00          	cmpl   $0x0,0xfffffff4(%ebp)
    2706:	74 70                	je     2778 <sis_lock+0x18d>
    2708:	c7 45 f0 00 00 00 00 	movl   $0x0,0xfffffff0(%ebp)
    270f:	eb 67                	jmp    2778 <sis_lock+0x18d>
    2711:	8b 55 ec             	mov    0xffffffec(%ebp),%edx
    2714:	8b 4d f0             	mov    0xfffffff0(%ebp),%ecx
    2717:	89 d0                	mov    %edx,%eax
    2719:	c1 e0 02             	shl    $0x2,%eax
    271c:	01 d0                	add    %edx,%eax
    271e:	01 c0                	add    %eax,%eax
    2720:	01 c8                	add    %ecx,%eax
    2722:	8b 04 85 10 00 00 00 	mov    0x10(,%eax,4),%eax
    2729:	85 c0                	test   %eax,%eax
    272b:	74 21                	je     274e <sis_lock+0x163>
    272d:	8b 55 ec             	mov    0xffffffec(%ebp),%edx
    2730:	8b 4d f0             	mov    0xfffffff0(%ebp),%ecx
    2733:	89 d0                	mov    %edx,%eax
    2735:	c1 e0 02             	shl    $0x2,%eax
    2738:	01 d0                	add    %edx,%eax
    273a:	01 c0                	add    %eax,%eax
    273c:	01 c8                	add    %ecx,%eax
    273e:	8b 14 85 10 00 00 00 	mov    0x10(,%eax,4),%edx
    2745:	a1 00 00 00 00       	mov    0x0,%eax
    274a:	39 c2                	cmp    %eax,%edx
    274c:	75 27                	jne    2775 <sis_lock+0x18a>
    274e:	c7 45 f4 00 00 00 00 	movl   $0x0,0xfffffff4(%ebp)
    2755:	8b 55 ec             	mov    0xffffffec(%ebp),%edx
    2758:	8b 4d f0             	mov    0xfffffff0(%ebp),%ecx
    275b:	8b 1d 00 00 00 00    	mov    0x0,%ebx
    2761:	89 d0                	mov    %edx,%eax
    2763:	c1 e0 02             	shl    $0x2,%eax
    2766:	01 d0                	add    %edx,%eax
    2768:	01 c0                	add    %eax,%eax
    276a:	01 c8                	add    %ecx,%eax
    276c:	89 1c 85 10 00 00 00 	mov    %ebx,0x10(,%eax,4)
    2773:	eb 03                	jmp    2778 <sis_lock+0x18d>
    2775:	ff 45 f0             	incl   0xfffffff0(%ebp)
    2778:	83 7d f0 03          	cmpl   $0x3,0xfffffff0(%ebp)
    277c:	7f 06                	jg     2784 <sis_lock+0x199>
    277e:	83 7d f4 00          	cmpl   $0x0,0xfffffff4(%ebp)
    2782:	75 8d                	jne    2711 <sis_lock+0x126>
    2784:	a1 00 00 00 00       	mov    0x0,%eax
    2789:	c7 40 04 03 00 00 00 	movl   $0x3,0x4(%eax)
    2790:	a1 00 00 00 00       	mov    0x0,%eax
    2795:	89 45 f8             	mov    %eax,0xfffffff8(%ebp)
    2798:	a1 00 00 00 00       	mov    0x0,%eax
    279d:	89 44 24 04          	mov    %eax,0x4(%esp)
    27a1:	c7 04 24 00 00 00 00 	movl   $0x0,(%esp)
    27a8:	e8 0a f5 ff ff       	call   1cb7 <eliminar_elem>
    27ad:	e8 b7 f5 ff ff       	call   1d69 <planificador>
    27b2:	a3 00 00 00 00       	mov    %eax,0x0
    27b7:	a1 00 00 00 00       	mov    0x0,%eax
    27bc:	83 c0 08             	add    $0x8,%eax
    27bf:	8b 55 f8             	mov    0xfffffff8(%ebp),%edx
    27c2:	83 c2 08             	add    $0x8,%edx
    27c5:	89 44 24 04          	mov    %eax,0x4(%esp)
    27c9:	89 14 24             	mov    %edx,(%esp)
    27cc:	e8 fc ff ff ff       	call   27cd <sis_lock+0x1e2>
    27d1:	83 7d f0 03          	cmpl   $0x3,0xfffffff0(%ebp)
    27d5:	0f 8f 4c 01 00 00    	jg     2927 <sis_lock+0x33c>
    27db:	83 7d f4 00          	cmpl   $0x0,0xfffffff4(%ebp)
    27df:	0f 85 70 fe ff ff    	jne    2655 <sis_lock+0x6a>
    27e5:	e9 3d 01 00 00       	jmp    2927 <sis_lock+0x33c>
    27ea:	8b 55 ec             	mov    0xffffffec(%ebp),%edx
    27ed:	89 d0                	mov    %edx,%eax
    27ef:	c1 e0 02             	shl    $0x2,%eax
    27f2:	01 d0                	add    %edx,%eax
    27f4:	c1 e0 03             	shl    $0x3,%eax
    27f7:	8b 80 00 00 00 00    	mov    0x0(%eax),%eax
    27fd:	85 c0                	test   %eax,%eax
    27ff:	0f 85 22 01 00 00    	jne    2927 <sis_lock+0x33c>
    2805:	8b 55 ec             	mov    0xffffffec(%ebp),%edx
    2808:	89 d0                	mov    %edx,%eax
    280a:	c1 e0 02             	shl    $0x2,%eax
    280d:	01 d0                	add    %edx,%eax
    280f:	c1 e0 03             	shl    $0x3,%eax
    2812:	8b 80 0c 00 00 00    	mov    0xc(%eax),%eax
    2818:	85 c0                	test   %eax,%eax
    281a:	74 2b                	je     2847 <sis_lock+0x25c>
    281c:	8b 55 ec             	mov    0xffffffec(%ebp),%edx
    281f:	89 d0                	mov    %edx,%eax
    2821:	c1 e0 02             	shl    $0x2,%eax
    2824:	01 d0                	add    %edx,%eax
    2826:	c1 e0 03             	shl    $0x3,%eax
    2829:	8b 80 24 00 00 00    	mov    0x24(%eax),%eax
    282f:	8d 48 01             	lea    0x1(%eax),%ecx
    2832:	89 d0                	mov    %edx,%eax
    2834:	c1 e0 02             	shl    $0x2,%eax
    2837:	01 d0                	add    %edx,%eax
    2839:	c1 e0 03             	shl    $0x3,%eax
    283c:	89 88 24 00 00 00    	mov    %ecx,0x24(%eax)
    2842:	e9 e0 00 00 00       	jmp    2927 <sis_lock+0x33c>
    2847:	8b 55 ec             	mov    0xffffffec(%ebp),%edx
    284a:	89 d0                	mov    %edx,%eax
    284c:	c1 e0 02             	shl    $0x2,%eax
    284f:	01 d0                	add    %edx,%eax
    2851:	c1 e0 03             	shl    $0x3,%eax
    2854:	8b 80 24 00 00 00    	mov    0x24(%eax),%eax
    285a:	8d 48 01             	lea    0x1(%eax),%ecx
    285d:	89 d0                	mov    %edx,%eax
    285f:	c1 e0 02             	shl    $0x2,%eax
    2862:	01 d0                	add    %edx,%eax
    2864:	c1 e0 03             	shl    $0x3,%eax
    2867:	89 88 24 00 00 00    	mov    %ecx,0x24(%eax)
    286d:	8b 55 ec             	mov    0xffffffec(%ebp),%edx
    2870:	8b 0d 00 00 00 00    	mov    0x0,%ecx
    2876:	89 d0                	mov    %edx,%eax
    2878:	c1 e0 02             	shl    $0x2,%eax
    287b:	01 d0                	add    %edx,%eax
    287d:	c1 e0 03             	shl    $0x3,%eax
    2880:	89 88 0c 00 00 00    	mov    %ecx,0xc(%eax)
    2886:	eb 46                	jmp    28ce <sis_lock+0x2e3>
    2888:	8b 55 ec             	mov    0xffffffec(%ebp),%edx
    288b:	8b 4d f0             	mov    0xfffffff0(%ebp),%ecx
    288e:	89 d0                	mov    %edx,%eax
    2890:	c1 e0 02             	shl    $0x2,%eax
    2893:	01 d0                	add    %edx,%eax
    2895:	01 c0                	add    %eax,%eax
    2897:	01 c8                	add    %ecx,%eax
    2899:	8b 04 85 10 00 00 00 	mov    0x10(,%eax,4),%eax
    28a0:	85 c0                	test   %eax,%eax
    28a2:	75 27                	jne    28cb <sis_lock+0x2e0>
    28a4:	c7 45 f4 00 00 00 00 	movl   $0x0,0xfffffff4(%ebp)
    28ab:	8b 55 ec             	mov    0xffffffec(%ebp),%edx
    28ae:	8b 4d f0             	mov    0xfffffff0(%ebp),%ecx
    28b1:	8b 1d 00 00 00 00    	mov    0x0,%ebx
    28b7:	89 d0                	mov    %edx,%eax
    28b9:	c1 e0 02             	shl    $0x2,%eax
    28bc:	01 d0                	add    %edx,%eax
    28be:	01 c0                	add    %eax,%eax
    28c0:	01 c8                	add    %ecx,%eax
    28c2:	89 1c 85 10 00 00 00 	mov    %ebx,0x10(,%eax,4)
    28c9:	eb 03                	jmp    28ce <sis_lock+0x2e3>
    28cb:	ff 45 f0             	incl   0xfffffff0(%ebp)
    28ce:	83 7d f0 03          	cmpl   $0x3,0xfffffff0(%ebp)
    28d2:	7f 06                	jg     28da <sis_lock+0x2ef>
    28d4:	83 7d f4 00          	cmpl   $0x0,0xfffffff4(%ebp)
    28d8:	75 ae                	jne    2888 <sis_lock+0x29d>
    28da:	a1 00 00 00 00       	mov    0x0,%eax
    28df:	c7 40 04 03 00 00 00 	movl   $0x3,0x4(%eax)
    28e6:	a1 00 00 00 00       	mov    0x0,%eax
    28eb:	89 45 f8             	mov    %eax,0xfffffff8(%ebp)
    28ee:	a1 00 00 00 00       	mov    0x0,%eax
    28f3:	89 44 24 04          	mov    %eax,0x4(%esp)
    28f7:	c7 04 24 00 00 00 00 	movl   $0x0,(%esp)
    28fe:	e8 b4 f3 ff ff       	call   1cb7 <eliminar_elem>
    2903:	e8 61 f4 ff ff       	call   1d69 <planificador>
    2908:	a3 00 00 00 00       	mov    %eax,0x0
    290d:	a1 00 00 00 00       	mov    0x0,%eax
    2912:	83 c0 08             	add    $0x8,%eax
    2915:	8b 55 f8             	mov    0xfffffff8(%ebp),%edx
    2918:	83 c2 08             	add    $0x8,%edx
    291b:	89 44 24 04          	mov    %eax,0x4(%esp)
    291f:	89 14 24             	mov    %edx,(%esp)
    2922:	e8 fc ff ff ff       	call   2923 <sis_lock+0x338>
    2927:	c7 45 e8 00 00 00 00 	movl   $0x0,0xffffffe8(%ebp)
    292e:	8b 45 e8             	mov    0xffffffe8(%ebp),%eax
    2931:	83 c4 24             	add    $0x24,%esp
    2934:	5b                   	pop    %ebx
    2935:	5d                   	pop    %ebp
    2936:	c3                   	ret    

00002937 <sis_unlock>:
    2937:	55                   	push   %ebp
    2938:	89 e5                	mov    %esp,%ebp
    293a:	53                   	push   %ebx
    293b:	83 ec 34             	sub    $0x34,%esp
    293e:	c7 45 f4 00 00 00 00 	movl   $0x0,0xfffffff4(%ebp)
    2945:	c7 45 f8 01 00 00 00 	movl   $0x1,0xfffffff8(%ebp)
    294c:	c7 04 24 01 00 00 00 	movl   $0x1,(%esp)
    2953:	e8 fc ff ff ff       	call   2954 <sis_unlock+0x1d>
    2958:	89 45 e8             	mov    %eax,0xffffffe8(%ebp)
    295b:	c7 04 24 e0 40 00 00 	movl   $0x40e0,(%esp)
    2962:	e8 fc ff ff ff       	call   2963 <sis_unlock+0x2c>
    2967:	83 7d e8 0f          	cmpl   $0xf,0xffffffe8(%ebp)
    296b:	76 0c                	jbe    2979 <sis_unlock+0x42>
    296d:	c7 45 d8 ff ff ff ff 	movl   $0xffffffff,0xffffffd8(%ebp)
    2974:	e9 f1 01 00 00       	jmp    2b6a <sis_unlock+0x233>
    2979:	8b 55 e8             	mov    0xffffffe8(%ebp),%edx
    297c:	89 d0                	mov    %edx,%eax
    297e:	c1 e0 02             	shl    $0x2,%eax
    2981:	01 d0                	add    %edx,%eax
    2983:	c1 e0 03             	shl    $0x3,%eax
    2986:	8b 80 00 00 00 00    	mov    0x0(%eax),%eax
    298c:	83 f8 01             	cmp    $0x1,%eax
    298f:	0f 85 93 00 00 00    	jne    2a28 <sis_unlock+0xf1>
    2995:	eb 78                	jmp    2a0f <sis_unlock+0xd8>
    2997:	8b 55 e8             	mov    0xffffffe8(%ebp),%edx
    299a:	89 d0                	mov    %edx,%eax
    299c:	c1 e0 02             	shl    $0x2,%eax
    299f:	01 d0                	add    %edx,%eax
    29a1:	c1 e0 03             	shl    $0x3,%eax
    29a4:	8b 80 0c 00 00 00    	mov    0xc(%eax),%eax
    29aa:	85 c0                	test   %eax,%eax
    29ac:	74 5e                	je     2a0c <sis_unlock+0xd5>
    29ae:	8b 55 e8             	mov    0xffffffe8(%ebp),%edx
    29b1:	89 d0                	mov    %edx,%eax
    29b3:	c1 e0 02             	shl    $0x2,%eax
    29b6:	01 d0                	add    %edx,%eax
    29b8:	c1 e0 03             	shl    $0x3,%eax
    29bb:	8b 80 0c 00 00 00    	mov    0xc(%eax),%eax
    29c1:	89 45 ec             	mov    %eax,0xffffffec(%ebp)
    29c4:	8b 55 e8             	mov    0xffffffe8(%ebp),%edx
    29c7:	8b 0d 00 00 00 00    	mov    0x0,%ecx
    29cd:	89 d0                	mov    %edx,%eax
    29cf:	c1 e0 02             	shl    $0x2,%eax
    29d2:	01 d0                	add    %edx,%eax
    29d4:	c1 e0 03             	shl    $0x3,%eax
    29d7:	89 88 0c 00 00 00    	mov    %ecx,0xc(%eax)
    29dd:	8b 55 e8             	mov    0xffffffe8(%ebp),%edx
    29e0:	89 d0                	mov    %edx,%eax
    29e2:	c1 e0 02             	shl    $0x2,%eax
    29e5:	01 d0                	add    %edx,%eax
    29e7:	c1 e0 03             	shl    $0x3,%eax
    29ea:	8b 80 24 00 00 00    	mov    0x24(%eax),%eax
    29f0:	8d 48 ff             	lea    0xffffffff(%eax),%ecx
    29f3:	89 d0                	mov    %edx,%eax
    29f5:	c1 e0 02             	shl    $0x2,%eax
    29f8:	01 d0                	add    %edx,%eax
    29fa:	c1 e0 03             	shl    $0x3,%eax
    29fd:	89 88 24 00 00 00    	mov    %ecx,0x24(%eax)
    2a03:	c7 45 f8 00 00 00 00 	movl   $0x0,0xfffffff8(%ebp)
    2a0a:	eb 03                	jmp    2a0f <sis_unlock+0xd8>
    2a0c:	ff 45 f4             	incl   0xfffffff4(%ebp)
    2a0f:	83 7d f4 03          	cmpl   $0x3,0xfffffff4(%ebp)
    2a13:	0f 8f 4a 01 00 00    	jg     2b63 <sis_unlock+0x22c>
    2a19:	83 7d f8 00          	cmpl   $0x0,0xfffffff8(%ebp)
    2a1d:	0f 85 74 ff ff ff    	jne    2997 <sis_unlock+0x60>
    2a23:	e9 3b 01 00 00       	jmp    2b63 <sis_unlock+0x22c>
    2a28:	8b 55 e8             	mov    0xffffffe8(%ebp),%edx
    2a2b:	89 d0                	mov    %edx,%eax
    2a2d:	c1 e0 02             	shl    $0x2,%eax
    2a30:	01 d0                	add    %edx,%eax
    2a32:	c1 e0 03             	shl    $0x3,%eax
    2a35:	8b 80 00 00 00 00    	mov    0x0(%eax),%eax
    2a3b:	85 c0                	test   %eax,%eax
    2a3d:	0f 85 20 01 00 00    	jne    2b63 <sis_unlock+0x22c>
    2a43:	8b 55 e8             	mov    0xffffffe8(%ebp),%edx
    2a46:	89 d0                	mov    %edx,%eax
    2a48:	c1 e0 02             	shl    $0x2,%eax
    2a4b:	01 d0                	add    %edx,%eax
    2a4d:	c1 e0 03             	shl    $0x3,%eax
    2a50:	8b 80 20 00 00 00    	mov    0x20(%eax),%eax
    2a56:	83 f8 01             	cmp    $0x1,%eax
    2a59:	75 41                	jne    2a9c <sis_unlock+0x165>
    2a5b:	8b 55 e8             	mov    0xffffffe8(%ebp),%edx
    2a5e:	89 d0                	mov    %edx,%eax
    2a60:	c1 e0 02             	shl    $0x2,%eax
    2a63:	01 d0                	add    %edx,%eax
    2a65:	c1 e0 03             	shl    $0x3,%eax
    2a68:	8b 80 20 00 00 00    	mov    0x20(%eax),%eax
    2a6e:	8d 48 ff             	lea    0xffffffff(%eax),%ecx
    2a71:	89 d0                	mov    %edx,%eax
    2a73:	c1 e0 02             	shl    $0x2,%eax
    2a76:	01 d0                	add    %edx,%eax
    2a78:	c1 e0 03             	shl    $0x3,%eax
    2a7b:	89 88 20 00 00 00    	mov    %ecx,0x20(%eax)
    2a81:	8b 55 e8             	mov    0xffffffe8(%ebp),%edx
    2a84:	89 d0                	mov    %edx,%eax
    2a86:	c1 e0 02             	shl    $0x2,%eax
    2a89:	01 d0                	add    %edx,%eax
    2a8b:	c1 e0 03             	shl    $0x3,%eax
    2a8e:	8b 80 10 00 00 00    	mov    0x10(%eax),%eax
    2a94:	89 45 ec             	mov    %eax,0xffffffec(%ebp)
    2a97:	e9 c7 00 00 00       	jmp    2b63 <sis_unlock+0x22c>
    2a9c:	8b 55 e8             	mov    0xffffffe8(%ebp),%edx
    2a9f:	89 d0                	mov    %edx,%eax
    2aa1:	c1 e0 02             	shl    $0x2,%eax
    2aa4:	01 d0                	add    %edx,%eax
    2aa6:	c1 e0 03             	shl    $0x3,%eax
    2aa9:	8b 80 20 00 00 00    	mov    0x20(%eax),%eax
    2aaf:	8d 48 01             	lea    0x1(%eax),%ecx
    2ab2:	89 d0                	mov    %edx,%eax
    2ab4:	c1 e0 02             	shl    $0x2,%eax
    2ab7:	01 d0                	add    %edx,%eax
    2ab9:	c1 e0 03             	shl    $0x3,%eax
    2abc:	89 88 20 00 00 00    	mov    %ecx,0x20(%eax)
    2ac2:	eb 46                	jmp    2b0a <sis_unlock+0x1d3>
    2ac4:	8b 55 e8             	mov    0xffffffe8(%ebp),%edx
    2ac7:	8b 4d f4             	mov    0xfffffff4(%ebp),%ecx
    2aca:	89 d0                	mov    %edx,%eax
    2acc:	c1 e0 02             	shl    $0x2,%eax
    2acf:	01 d0                	add    %edx,%eax
    2ad1:	01 c0                	add    %eax,%eax
    2ad3:	01 c8                	add    %ecx,%eax
    2ad5:	8b 04 85 10 00 00 00 	mov    0x10(,%eax,4),%eax
    2adc:	85 c0                	test   %eax,%eax
    2ade:	75 27                	jne    2b07 <sis_unlock+0x1d0>
    2ae0:	c7 45 f8 00 00 00 00 	movl   $0x0,0xfffffff8(%ebp)
    2ae7:	8b 55 e8             	mov    0xffffffe8(%ebp),%edx
    2aea:	8b 4d f4             	mov    0xfffffff4(%ebp),%ecx
    2aed:	8b 1d 00 00 00 00    	mov    0x0,%ebx
    2af3:	89 d0                	mov    %edx,%eax
    2af5:	c1 e0 02             	shl    $0x2,%eax
    2af8:	01 d0                	add    %edx,%eax
    2afa:	01 c0                	add    %eax,%eax
    2afc:	01 c8                	add    %ecx,%eax
    2afe:	89 1c 85 10 00 00 00 	mov    %ebx,0x10(,%eax,4)
    2b05:	eb 03                	jmp    2b0a <sis_unlock+0x1d3>
    2b07:	ff 45 f4             	incl   0xfffffff4(%ebp)
    2b0a:	83 7d f4 03          	cmpl   $0x3,0xfffffff4(%ebp)
    2b0e:	7f 06                	jg     2b16 <sis_unlock+0x1df>
    2b10:	83 7d f8 00          	cmpl   $0x0,0xfffffff8(%ebp)
    2b14:	75 ae                	jne    2ac4 <sis_unlock+0x18d>
    2b16:	a1 00 00 00 00       	mov    0x0,%eax
    2b1b:	c7 40 04 03 00 00 00 	movl   $0x3,0x4(%eax)
    2b22:	a1 00 00 00 00       	mov    0x0,%eax
    2b27:	89 45 f0             	mov    %eax,0xfffffff0(%ebp)
    2b2a:	a1 00 00 00 00       	mov    0x0,%eax
    2b2f:	89 44 24 04          	mov    %eax,0x4(%esp)
    2b33:	c7 04 24 00 00 00 00 	movl   $0x0,(%esp)
    2b3a:	e8 78 f1 ff ff       	call   1cb7 <eliminar_elem>
    2b3f:	e8 25 f2 ff ff       	call   1d69 <planificador>
    2b44:	a3 00 00 00 00       	mov    %eax,0x0
    2b49:	a1 00 00 00 00       	mov    0x0,%eax
    2b4e:	83 c0 08             	add    $0x8,%eax
    2b51:	8b 55 f0             	mov    0xfffffff0(%ebp),%edx
    2b54:	83 c2 08             	add    $0x8,%edx
    2b57:	89 44 24 04          	mov    %eax,0x4(%esp)
    2b5b:	89 14 24             	mov    %edx,(%esp)
    2b5e:	e8 fc ff ff ff       	call   2b5f <sis_unlock+0x228>
    2b63:	c7 45 d8 00 00 00 00 	movl   $0x0,0xffffffd8(%ebp)
    2b6a:	8b 45 d8             	mov    0xffffffd8(%ebp),%eax
    2b6d:	83 c4 34             	add    $0x34,%esp
    2b70:	5b                   	pop    %ebx
    2b71:	5d                   	pop    %ebp
    2b72:	c3                   	ret    

00002b73 <sis_cerrar_mutex>:
    2b73:	55                   	push   %ebp
    2b74:	89 e5                	mov    %esp,%ebp
    2b76:	83 ec 18             	sub    $0x18,%esp
    2b79:	c7 04 24 01 00 00 00 	movl   $0x1,(%esp)
    2b80:	e8 fc ff ff ff       	call   2b81 <sis_cerrar_mutex+0xe>
    2b85:	89 45 fc             	mov    %eax,0xfffffffc(%ebp)
    2b88:	c7 04 24 08 41 00 00 	movl   $0x4108,(%esp)
    2b8f:	e8 fc ff ff ff       	call   2b90 <sis_cerrar_mutex+0x1d>
    2b94:	b8 00 00 00 00       	mov    $0x0,%eax
    2b99:	c9                   	leave  
    2b9a:	c3                   	ret    

00002b9b <main>:
    2b9b:	8d 4c 24 04          	lea    0x4(%esp),%ecx
    2b9f:	83 e4 f0             	and    $0xfffffff0,%esp
    2ba2:	ff 71 fc             	pushl  0xfffffffc(%ecx)
    2ba5:	55                   	push   %ebp
    2ba6:	89 e5                	mov    %esp,%ebp
    2ba8:	51                   	push   %ecx
    2ba9:	83 ec 24             	sub    $0x24,%esp
    2bac:	c7 45 f8 00 00 00 00 	movl   $0x0,0xfffffff8(%ebp)
    2bb3:	e8 14 f0 ff ff       	call   1bcc <iniciar_tabla_proc>
    2bb8:	c7 44 24 04 33 1e 00 	movl   $0x1e33,0x4(%esp)
    2bbf:	00 
    2bc0:	c7 04 24 00 00 00 00 	movl   $0x0,(%esp)
    2bc7:	e8 fc ff ff ff       	call   2bc8 <main+0x2d>
    2bcc:	c7 44 24 04 6c 1e 00 	movl   $0x1e6c,0x4(%esp)
    2bd3:	00 
    2bd4:	c7 04 24 01 00 00 00 	movl   $0x1,(%esp)
    2bdb:	e8 fc ff ff ff       	call   2bdc <main+0x41>
    2be0:	c7 44 24 04 d9 1e 00 	movl   $0x1ed9,0x4(%esp)
    2be7:	00 
    2be8:	c7 04 24 02 00 00 00 	movl   $0x2,(%esp)
    2bef:	e8 fc ff ff ff       	call   2bf0 <main+0x55>
    2bf4:	c7 44 24 04 ae 1e 00 	movl   $0x1eae,0x4(%esp)
    2bfb:	00 
    2bfc:	c7 04 24 03 00 00 00 	movl   $0x3,(%esp)
    2c03:	e8 fc ff ff ff       	call   2c04 <main+0x69>
    2c08:	c7 44 24 04 60 20 00 	movl   $0x2060,0x4(%esp)
    2c0f:	00 
    2c10:	c7 04 24 04 00 00 00 	movl   $0x4,(%esp)
    2c17:	e8 fc ff ff ff       	call   2c18 <main+0x7d>
    2c1c:	c7 44 24 04 a8 20 00 	movl   $0x20a8,0x4(%esp)
    2c23:	00 
    2c24:	c7 04 24 05 00 00 00 	movl   $0x5,(%esp)
    2c2b:	e8 fc ff ff ff       	call   2c2c <main+0x91>
    2c30:	e8 fc ff ff ff       	call   2c31 <main+0x96>
    2c35:	c7 04 24 64 00 00 00 	movl   $0x64,(%esp)
    2c3c:	e8 fc ff ff ff       	call   2c3d <main+0xa2>
    2c41:	e8 fc ff ff ff       	call   2c42 <main+0xa7>
    2c46:	c7 45 f8 00 00 00 00 	movl   $0x0,0xfffffff8(%ebp)
    2c4d:	e9 b1 00 00 00       	jmp    2d03 <main+0x168>
    2c52:	8b 55 f8             	mov    0xfffffff8(%ebp),%edx
    2c55:	89 d0                	mov    %edx,%eax
    2c57:	c1 e0 02             	shl    $0x2,%eax
    2c5a:	01 d0                	add    %edx,%eax
    2c5c:	c1 e0 03             	shl    $0x3,%eax
    2c5f:	c7 80 00 00 00 00 00 	movl   $0x0,0x0(%eax)
    2c66:	00 00 00 
    2c69:	8b 55 f8             	mov    0xfffffff8(%ebp),%edx
    2c6c:	89 d0                	mov    %edx,%eax
    2c6e:	c1 e0 02             	shl    $0x2,%eax
    2c71:	01 d0                	add    %edx,%eax
    2c73:	c1 e0 03             	shl    $0x3,%eax
    2c76:	05 00 00 00 00       	add    $0x0,%eax
    2c7b:	83 c0 04             	add    $0x4,%eax
    2c7e:	c7 00 00 00 00 00    	movl   $0x0,(%eax)
    2c84:	c7 40 04 00 00 00 00 	movl   $0x0,0x4(%eax)
    2c8b:	8b 55 f8             	mov    0xfffffff8(%ebp),%edx
    2c8e:	89 d0                	mov    %edx,%eax
    2c90:	c1 e0 02             	shl    $0x2,%eax
    2c93:	01 d0                	add    %edx,%eax
    2c95:	c1 e0 03             	shl    $0x3,%eax
    2c98:	83 c0 10             	add    $0x10,%eax
    2c9b:	05 00 00 00 00       	add    $0x0,%eax
    2ca0:	c7 00 00 00 00 00    	movl   $0x0,(%eax)
    2ca6:	c7 40 04 00 00 00 00 	movl   $0x0,0x4(%eax)
    2cad:	c7 40 08 00 00 00 00 	movl   $0x0,0x8(%eax)
    2cb4:	c7 40 0c 00 00 00 00 	movl   $0x0,0xc(%eax)
    2cbb:	8b 55 f8             	mov    0xfffffff8(%ebp),%edx
    2cbe:	89 d0                	mov    %edx,%eax
    2cc0:	c1 e0 02             	shl    $0x2,%eax
    2cc3:	01 d0                	add    %edx,%eax
    2cc5:	c1 e0 03             	shl    $0x3,%eax
    2cc8:	c7 80 0c 00 00 00 00 	movl   $0x0,0xc(%eax)
    2ccf:	00 00 00 
    2cd2:	8b 55 f8             	mov    0xfffffff8(%ebp),%edx
    2cd5:	89 d0                	mov    %edx,%eax
    2cd7:	c1 e0 02             	shl    $0x2,%eax
    2cda:	01 d0                	add    %edx,%eax
    2cdc:	c1 e0 03             	shl    $0x3,%eax
    2cdf:	c7 80 20 00 00 00 00 	movl   $0x0,0x20(%eax)
    2ce6:	00 00 00 
    2ce9:	8b 55 f8             	mov    0xfffffff8(%ebp),%edx
    2cec:	89 d0                	mov    %edx,%eax
    2cee:	c1 e0 02             	shl    $0x2,%eax
    2cf1:	01 d0                	add    %edx,%eax
    2cf3:	c1 e0 03             	shl    $0x3,%eax
    2cf6:	c7 80 24 00 00 00 00 	movl   $0x0,0x24(%eax)
    2cfd:	00 00 00 
    2d00:	ff 45 f8             	incl   0xfffffff8(%ebp)
    2d03:	83 7d f8 0f          	cmpl   $0xf,0xfffffff8(%ebp)
    2d07:	0f 8e 45 ff ff ff    	jle    2c52 <main+0xb7>
    2d0d:	c7 04 24 42 41 00 00 	movl   $0x4142,(%esp)
    2d14:	e8 a3 f3 ff ff       	call   20bc <crear_tarea>
    2d19:	85 c0                	test   %eax,%eax
    2d1b:	79 0c                	jns    2d29 <main+0x18e>
    2d1d:	c7 04 24 48 41 00 00 	movl   $0x4148,(%esp)
    2d24:	e8 fc ff ff ff       	call   2d25 <main+0x18a>
    2d29:	e8 3b f0 ff ff       	call   1d69 <planificador>
    2d2e:	a3 00 00 00 00       	mov    %eax,0x0
    2d33:	a1 00 00 00 00       	mov    0x0,%eax
    2d38:	83 c0 08             	add    $0x8,%eax
    2d3b:	89 44 24 04          	mov    %eax,0x4(%esp)
    2d3f:	c7 04 24 00 00 00 00 	movl   $0x0,(%esp)
    2d46:	e8 fc ff ff ff       	call   2d47 <main+0x1ac>
    2d4b:	c7 04 24 6c 41 00 00 	movl   $0x416c,(%esp)
    2d52:	e8 fc ff ff ff       	call   2d53 <main+0x1b8>
    2d57:	b8 00 00 00 00       	mov    $0x0,%eax
    2d5c:	83 c4 24             	add    $0x24,%esp
    2d5f:	59                   	pop    %ecx
    2d60:	5d                   	pop    %ebp
    2d61:	8d 61 fc             	lea    0xfffffffc(%ecx),%esp
    2d64:	c3                   	ret    
    2d65:	90                   	nop    
    2d66:	90                   	nop    
    2d67:	90                   	nop    
    2d68:	90                   	nop    
    2d69:	90                   	nop    
    2d6a:	90                   	nop    
    2d6b:	90                   	nop    
    2d6c:	90                   	nop    
    2d6d:	90                   	nop    
    2d6e:	90                   	nop    
    2d6f:	90                   	nop    

00002d70 <instal_man_int>:
    2d70:	55                   	push   %ebp
    2d71:	89 e5                	mov    %esp,%ebp
    2d73:	83 ec 08             	sub    $0x8,%esp
    2d76:	83 7d 08 06          	cmpl   $0x6,0x8(%ebp)
    2d7a:	7f 08                	jg     2d84 <instal_man_int+0x14>
    2d7c:	83 7d 08 00          	cmpl   $0x0,0x8(%ebp)
    2d80:	7c 02                	jl     2d84 <instal_man_int+0x14>
    2d82:	eb 10                	jmp    2d94 <instal_man_int+0x24>
    2d84:	83 c4 f4             	add    $0xfffffff4,%esp
    2d87:	68 a0 41 00 00       	push   $0x41a0
    2d8c:	e8 fc ff ff ff       	call   2d8d <instal_man_int+0x1d>
    2d91:	83 c4 10             	add    $0x10,%esp
    2d94:	8b 45 08             	mov    0x8(%ebp),%eax
    2d97:	89 c2                	mov    %eax,%edx
    2d99:	8d 04 95 00 00 00 00 	lea    0x0(,%edx,4),%eax
    2da0:	ba 60 54 00 00       	mov    $0x5460,%edx
    2da5:	8b 4d 0c             	mov    0xc(%ebp),%ecx
    2da8:	89 0c 10             	mov    %ecx,(%eax,%edx,1)
    2dab:	89 ec                	mov    %ebp,%esp
    2dad:	5d                   	pop    %ebp
    2dae:	c3                   	ret    
    2daf:	90                   	nop    

00002db0 <printk>:
    2db0:	55                   	push   %ebp
    2db1:	89 e5                	mov    %esp,%ebp
    2db3:	81 ec 18 04 00 00    	sub    $0x418,%esp
    2db9:	8d 45 0c             	lea    0xc(%ebp),%eax
    2dbc:	89 85 fc fb ff ff    	mov    %eax,0xfffffbfc(%ebp)
    2dc2:	83 c4 fc             	add    $0xfffffffc,%esp
    2dc5:	8b 85 fc fb ff ff    	mov    0xfffffbfc(%ebp),%eax
    2dcb:	50                   	push   %eax
    2dcc:	8b 45 08             	mov    0x8(%ebp),%eax
    2dcf:	50                   	push   %eax
    2dd0:	8d 85 00 fc ff ff    	lea    0xfffffc00(%ebp),%eax
    2dd6:	50                   	push   %eax
    2dd7:	e8 fc ff ff ff       	call   2dd8 <printk+0x28>
    2ddc:	83 c4 10             	add    $0x10,%esp
    2ddf:	89 c0                	mov    %eax,%eax
    2de1:	89 85 f8 fb ff ff    	mov    %eax,0xfffffbf8(%ebp)
    2de7:	83 bd f8 fb ff ff 00 	cmpl   $0x0,0xfffffbf8(%ebp)
    2dee:	7e 27                	jle    2e17 <printk+0x67>
    2df0:	83 c4 f8             	add    $0xfffffff8,%esp
    2df3:	83 c4 f4             	add    $0xfffffff4,%esp
    2df6:	8d 85 00 fc ff ff    	lea    0xfffffc00(%ebp),%eax
    2dfc:	50                   	push   %eax
    2dfd:	e8 fc ff ff ff       	call   2dfe <printk+0x4e>
    2e02:	83 c4 10             	add    $0x10,%esp
    2e05:	89 c0                	mov    %eax,%eax
    2e07:	50                   	push   %eax
    2e08:	8d 85 00 fc ff ff    	lea    0xfffffc00(%ebp),%eax
    2e0e:	50                   	push   %eax
    2e0f:	e8 fc ff ff ff       	call   2e10 <printk+0x60>
    2e14:	83 c4 10             	add    $0x10,%esp
    2e17:	8b 95 f8 fb ff ff    	mov    0xfffffbf8(%ebp),%edx
    2e1d:	89 d0                	mov    %edx,%eax
    2e1f:	eb 00                	jmp    2e21 <printk+0x71>
    2e21:	89 ec                	mov    %ebp,%esp
    2e23:	5d                   	pop    %ebp
    2e24:	c3                   	ret    
    2e25:	8d 74 26 00          	lea    0x0(%esi),%esi
    2e29:	8d bc 27 00 00 00 00 	lea    0x0(%edi),%edi

00002e30 <panico>:
    2e30:	55                   	push   %ebp
    2e31:	89 e5                	mov    %esp,%ebp
    2e33:	83 ec 48             	sub    $0x48,%esp
    2e36:	83 c4 f4             	add    $0xfffffff4,%esp
    2e39:	6a 03                	push   $0x3
    2e3b:	e8 fc ff ff ff       	call   2e3c <panico+0xc>
    2e40:	83 c4 10             	add    $0x10,%esp
    2e43:	89 c0                	mov    %eax,%eax
    2e45:	89 45 c0             	mov    %eax,0xffffffc0(%ebp)
    2e48:	83 c4 fc             	add    $0xfffffffc,%esp
    2e4b:	83 c4 f4             	add    $0xfffffff4,%esp
    2e4e:	8b 45 08             	mov    0x8(%ebp),%eax
    2e51:	50                   	push   %eax
    2e52:	e8 fc ff ff ff       	call   2e53 <panico+0x23>
    2e57:	83 c4 10             	add    $0x10,%esp
    2e5a:	89 c0                	mov    %eax,%eax
    2e5c:	50                   	push   %eax
    2e5d:	8b 45 08             	mov    0x8(%ebp),%eax
    2e60:	50                   	push   %eax
    2e61:	6a 02                	push   $0x2
    2e63:	e8 fc ff ff ff       	call   2e64 <panico+0x34>
    2e68:	83 c4 10             	add    $0x10,%esp
    2e6b:	83 c4 fc             	add    $0xfffffffc,%esp
    2e6e:	6a 01                	push   $0x1
    2e70:	68 be 41 00 00       	push   $0x41be
    2e75:	6a 02                	push   $0x2
    2e77:	e8 fc ff ff ff       	call   2e78 <panico+0x48>
    2e7c:	83 c4 10             	add    $0x10,%esp
    2e7f:	83 c4 f8             	add    $0xfffffff8,%esp
    2e82:	8d 45 c4             	lea    0xffffffc4(%ebp),%eax
    2e85:	50                   	push   %eax
    2e86:	6a 00                	push   $0x0
    2e88:	e8 fc ff ff ff       	call   2e89 <panico+0x59>
    2e8d:	83 c4 10             	add    $0x10,%esp
    2e90:	80 4d d0 02          	orb    $0x2,0xffffffd0(%ebp)
    2e94:	80 4d d0 08          	orb    $0x8,0xffffffd0(%ebp)
    2e98:	83 c4 fc             	add    $0xfffffffc,%esp
    2e9b:	8d 45 c4             	lea    0xffffffc4(%ebp),%eax
    2e9e:	50                   	push   %eax
    2e9f:	6a 02                	push   $0x2
    2ea1:	6a 00                	push   $0x0
    2ea3:	e8 fc ff ff ff       	call   2ea4 <panico+0x74>
    2ea8:	83 c4 10             	add    $0x10,%esp
    2eab:	83 c4 f4             	add    $0xfffffff4,%esp
    2eae:	6a 01                	push   $0x1
    2eb0:	e8 fc ff ff ff       	call   2eb1 <panico+0x81>
    2eb5:	83 c4 10             	add    $0x10,%esp
    2eb8:	89 ec                	mov    %ebp,%esp
    2eba:	5d                   	pop    %ebp
    2ebb:	c3                   	ret    
    2ebc:	8d 74 26 00          	lea    0x0(%esi),%esi

00002ec0 <escribir_ker>:
    2ec0:	55                   	push   %ebp
    2ec1:	89 e5                	mov    %esp,%ebp
    2ec3:	83 ec 18             	sub    $0x18,%esp
    2ec6:	83 c4 f4             	add    $0xfffffff4,%esp
    2ec9:	6a 03                	push   $0x3
    2ecb:	e8 fc ff ff ff       	call   2ecc <escribir_ker+0xc>
    2ed0:	83 c4 10             	add    $0x10,%esp
    2ed3:	89 c0                	mov    %eax,%eax
    2ed5:	89 45 fc             	mov    %eax,0xfffffffc(%ebp)
    2ed8:	83 c4 fc             	add    $0xfffffffc,%esp
    2edb:	8b 45 0c             	mov    0xc(%ebp),%eax
    2ede:	50                   	push   %eax
    2edf:	8b 45 08             	mov    0x8(%ebp),%eax
    2ee2:	50                   	push   %eax
    2ee3:	6a 01                	push   $0x1
    2ee5:	e8 fc ff ff ff       	call   2ee6 <escribir_ker+0x26>
    2eea:	83 c4 10             	add    $0x10,%esp
    2eed:	83 c4 f4             	add    $0xfffffff4,%esp
    2ef0:	8b 45 fc             	mov    0xfffffffc(%ebp),%eax
    2ef3:	50                   	push   %eax
    2ef4:	e8 fc ff ff ff       	call   2ef5 <escribir_ker+0x35>
    2ef9:	83 c4 10             	add    $0x10,%esp
    2efc:	89 ec                	mov    %ebp,%esp
    2efe:	5d                   	pop    %ebp
    2eff:	c3                   	ret    

00002f00 <halt>:
    2f00:	55                   	push   %ebp
    2f01:	89 e5                	mov    %esp,%ebp
    2f03:	83 ec 08             	sub    $0x8,%esp
    2f06:	e8 fc ff ff ff       	call   2f07 <halt+0x7>
    2f0b:	89 ec                	mov    %ebp,%esp
    2f0d:	5d                   	pop    %ebp
    2f0e:	c3                   	ret    
    2f0f:	90                   	nop    

00002f10 <salvar_registros>:
    2f10:	55                   	push   %ebp
    2f11:	89 e5                	mov    %esp,%ebp
    2f13:	83 ec 14             	sub    $0x14,%esp
    2f16:	53                   	push   %ebx
    2f17:	90                   	nop    
    2f18:	c7 45 fc 00 00 00 00 	movl   $0x0,0xfffffffc(%ebp)
    2f1f:	90                   	nop    
    2f20:	83 7d fc 05          	cmpl   $0x5,0xfffffffc(%ebp)
    2f24:	7e 02                	jle    2f28 <salvar_registros+0x18>
    2f26:	eb 29                	jmp    2f51 <salvar_registros+0x41>
    2f28:	8b 55 fc             	mov    0xfffffffc(%ebp),%edx
    2f2b:	8d 04 95 00 00 00 00 	lea    0x0(,%edx,4),%eax
    2f32:	8b 55 08             	mov    0x8(%ebp),%edx
    2f35:	8b 4d fc             	mov    0xfffffffc(%ebp),%ecx
    2f38:	89 cb                	mov    %ecx,%ebx
    2f3a:	8d 0c 9d 00 00 00 00 	lea    0x0(,%ebx,4),%ecx
    2f41:	bb 00 00 00 00       	mov    $0x0,%ebx
    2f46:	8b 0c 19             	mov    (%ecx,%ebx,1),%ecx
    2f49:	89 0c 02             	mov    %ecx,(%edx,%eax,1)
    2f4c:	ff 45 fc             	incl   0xfffffffc(%ebp)
    2f4f:	eb cf                	jmp    2f20 <salvar_registros+0x10>
    2f51:	8b 5d e8             	mov    0xffffffe8(%ebp),%ebx
    2f54:	89 ec                	mov    %ebp,%esp
    2f56:	5d                   	pop    %ebp
    2f57:	c3                   	ret    
    2f58:	90                   	nop    
    2f59:	8d b4 26 00 00 00 00 	lea    0x0(%esi),%esi

00002f60 <restaurar_registros>:
    2f60:	55                   	push   %ebp
    2f61:	89 e5                	mov    %esp,%ebp
    2f63:	83 ec 14             	sub    $0x14,%esp
    2f66:	53                   	push   %ebx
    2f67:	90                   	nop    
    2f68:	c7 45 fc 00 00 00 00 	movl   $0x0,0xfffffffc(%ebp)
    2f6f:	90                   	nop    
    2f70:	83 7d fc 05          	cmpl   $0x5,0xfffffffc(%ebp)
    2f74:	7e 02                	jle    2f78 <restaurar_registros+0x18>
    2f76:	eb 29                	jmp    2fa1 <restaurar_registros+0x41>
    2f78:	8b 45 fc             	mov    0xfffffffc(%ebp),%eax
    2f7b:	89 c2                	mov    %eax,%edx
    2f7d:	8d 04 95 00 00 00 00 	lea    0x0(,%edx,4),%eax
    2f84:	ba 00 00 00 00       	mov    $0x0,%edx
    2f89:	8b 4d fc             	mov    0xfffffffc(%ebp),%ecx
    2f8c:	8d 1c 8d 00 00 00 00 	lea    0x0(,%ecx,4),%ebx
    2f93:	8b 4d 08             	mov    0x8(%ebp),%ecx
    2f96:	8b 1c 19             	mov    (%ecx,%ebx,1),%ebx
    2f99:	89 1c 10             	mov    %ebx,(%eax,%edx,1)
    2f9c:	ff 45 fc             	incl   0xfffffffc(%ebp)
    2f9f:	eb cf                	jmp    2f70 <restaurar_registros+0x10>
    2fa1:	8b 5d e8             	mov    0xffffffe8(%ebp),%ebx
    2fa4:	89 ec                	mov    %ebp,%esp
    2fa6:	5d                   	pop    %ebp
    2fa7:	c3                   	ret    
    2fa8:	90                   	nop    
    2fa9:	8d b4 26 00 00 00 00 	lea    0x0(%esi),%esi

00002fb0 <cambio_contexto>:
    2fb0:	55                   	push   %ebp
    2fb1:	89 e5                	mov    %esp,%ebp
    2fb3:	83 ec 08             	sub    $0x8,%esp
    2fb6:	83 7d 08 00          	cmpl   $0x0,0x8(%ebp)
    2fba:	74 45                	je     3001 <cambio_contexto+0x51>
    2fbc:	8b 45 08             	mov    0x8(%ebp),%eax
    2fbf:	3b 45 0c             	cmp    0xc(%ebp),%eax
    2fc2:	74 3b                	je     2fff <cambio_contexto+0x4f>
    2fc4:	83 c4 f4             	add    $0xfffffff4,%esp
    2fc7:	8b 45 08             	mov    0x8(%ebp),%eax
    2fca:	05 5c 01 00 00       	add    $0x15c,%eax
    2fcf:	50                   	push   %eax
    2fd0:	e8 3b ff ff ff       	call   2f10 <salvar_registros>
    2fd5:	83 c4 10             	add    $0x10,%esp
    2fd8:	83 c4 f8             	add    $0xfffffff8,%esp
    2fdb:	8b 45 0c             	mov    0xc(%ebp),%eax
    2fde:	50                   	push   %eax
    2fdf:	8b 45 08             	mov    0x8(%ebp),%eax
    2fe2:	50                   	push   %eax
    2fe3:	e8 fc ff ff ff       	call   2fe4 <cambio_contexto+0x34>
    2fe8:	83 c4 10             	add    $0x10,%esp
    2feb:	83 c4 f4             	add    $0xfffffff4,%esp
    2fee:	8b 45 08             	mov    0x8(%ebp),%eax
    2ff1:	05 5c 01 00 00       	add    $0x15c,%eax
    2ff6:	50                   	push   %eax
    2ff7:	e8 64 ff ff ff       	call   2f60 <restaurar_registros>
    2ffc:	83 c4 10             	add    $0x10,%esp
    2fff:	eb 0f                	jmp    3010 <cambio_contexto+0x60>
    3001:	83 c4 f4             	add    $0xfffffff4,%esp
    3004:	8b 45 0c             	mov    0xc(%ebp),%eax
    3007:	50                   	push   %eax
    3008:	e8 fc ff ff ff       	call   3009 <cambio_contexto+0x59>
    300d:	83 c4 10             	add    $0x10,%esp
    3010:	89 ec                	mov    %ebp,%esp
    3012:	5d                   	pop    %ebp
    3013:	c3                   	ret    
    3014:	8d b6 00 00 00 00    	lea    0x0(%esi),%esi
    301a:	8d bf 00 00 00 00    	lea    0x0(%edi),%edi

00003020 <crear_imagen>:
    3020:	55                   	push   %ebp
    3021:	89 e5                	mov    %esp,%ebp
    3023:	81 ec 98 00 00 00    	sub    $0x98,%esp
    3029:	8b 45 08             	mov    0x8(%ebp),%eax
    302c:	50                   	push   %eax
    302d:	a1 00 00 00 00       	mov    0x0,%eax
    3032:	50                   	push   %eax
    3033:	68 c0 41 00 00       	push   $0x41c0
    3038:	8d 45 80             	lea    0xffffff80(%ebp),%eax
    303b:	50                   	push   %eax
    303c:	e8 fc ff ff ff       	call   303d <crear_imagen+0x1d>
    3041:	83 c4 10             	add    $0x10,%esp
    3044:	83 c4 f8             	add    $0xfffffff8,%esp
    3047:	6a 01                	push   $0x1
    3049:	8d 45 80             	lea    0xffffff80(%ebp),%eax
    304c:	50                   	push   %eax
    304d:	e8 fc ff ff ff       	call   304e <crear_imagen+0x2e>
    3052:	83 c4 10             	add    $0x10,%esp
    3055:	89 c0                	mov    %eax,%eax
    3057:	89 85 7c ff ff ff    	mov    %eax,0xffffff7c(%ebp)
    305d:	83 bd 7c ff ff ff 00 	cmpl   $0x0,0xffffff7c(%ebp)
    3064:	74 6a                	je     30d0 <crear_imagen+0xb0>
    3066:	83 c4 f8             	add    $0xfffffff8,%esp
    3069:	68 d0 41 00 00       	push   $0x41d0
    306e:	8b 85 7c ff ff ff    	mov    0xffffff7c(%ebp),%eax
    3074:	50                   	push   %eax
    3075:	e8 fc ff ff ff       	call   3076 <crear_imagen+0x56>
    307a:	83 c4 10             	add    $0x10,%esp
    307d:	89 c0                	mov    %eax,%eax
    307f:	8b 55 0c             	mov    0xc(%ebp),%edx
    3082:	89 02                	mov    %eax,(%edx)
    3084:	83 3a 00             	cmpl   $0x0,(%edx)
    3087:	74 47                	je     30d0 <crear_imagen+0xb0>
    3089:	83 c4 f8             	add    $0xfffffff8,%esp
    308c:	68 d5 41 00 00       	push   $0x41d5
    3091:	8b 85 7c ff ff ff    	mov    0xffffff7c(%ebp),%eax
    3097:	50                   	push   %eax
    3098:	e8 fc ff ff ff       	call   3099 <crear_imagen+0x79>
    309d:	83 c4 10             	add    $0x10,%esp
    30a0:	89 c0                	mov    %eax,%eax
    30a2:	89 c2                	mov    %eax,%edx
    30a4:	89 95 78 ff ff ff    	mov    %edx,0xffffff78(%ebp)
    30aa:	85 d2                	test   %edx,%edx
    30ac:	74 22                	je     30d0 <crear_imagen+0xb0>
    30ae:	8b 85 78 ff ff ff    	mov    0xffffff78(%ebp),%eax
    30b4:	c7 00 00 00 00 00    	movl   $0x0,(%eax)
    30ba:	ff 05 2c 54 00 00    	incl   0x542c
    30c0:	8b 95 7c ff ff ff    	mov    0xffffff7c(%ebp),%edx
    30c6:	89 d0                	mov    %edx,%eax
    30c8:	eb 0a                	jmp    30d4 <crear_imagen+0xb4>
    30ca:	8d b6 00 00 00 00    	lea    0x0(%esi),%esi
    30d0:	31 c0                	xor    %eax,%eax
    30d2:	eb 00                	jmp    30d4 <crear_imagen+0xb4>
    30d4:	89 ec                	mov    %ebp,%esp
    30d6:	5d                   	pop    %ebp
    30d7:	c3                   	ret    
    30d8:	90                   	nop    
    30d9:	8d b4 26 00 00 00 00 	lea    0x0(%esi),%esi

000030e0 <crear_pila>:
    30e0:	55                   	push   %ebp
    30e1:	89 e5                	mov    %esp,%ebp
    30e3:	83 ec 08             	sub    $0x8,%esp
    30e6:	83 c4 f4             	add    $0xfffffff4,%esp
    30e9:	8b 45 08             	mov    0x8(%ebp),%eax
    30ec:	50                   	push   %eax
    30ed:	e8 fc ff ff ff       	call   30ee <crear_pila+0xe>
    30f2:	83 c4 10             	add    $0x10,%esp
    30f5:	89 c0                	mov    %eax,%eax
    30f7:	89 c2                	mov    %eax,%edx
    30f9:	89 d0                	mov    %edx,%eax
    30fb:	eb 03                	jmp    3100 <crear_pila+0x20>
    30fd:	8d 76 00             	lea    0x0(%esi),%esi
    3100:	89 ec                	mov    %ebp,%esp
    3102:	5d                   	pop    %ebp
    3103:	c3                   	ret    
    3104:	8d b6 00 00 00 00    	lea    0x0(%esi),%esi
    310a:	8d bf 00 00 00 00    	lea    0x0(%edi),%edi

00003110 <liberar_pila>:
    3110:	55                   	push   %ebp
    3111:	89 e5                	mov    %esp,%ebp
    3113:	eb 00                	jmp    3115 <liberar_pila+0x5>
    3115:	89 ec                	mov    %ebp,%esp
    3117:	5d                   	pop    %ebp
    3118:	c3                   	ret    
    3119:	8d b4 26 00 00 00 00 	lea    0x0(%esi),%esi

00003120 <lanzadera>:
    3120:	55                   	push   %ebp
    3121:	89 e5                	mov    %esp,%ebp
    3123:	81 ec 94 00 00 00    	sub    $0x94,%esp
    3129:	53                   	push   %ebx
    312a:	83 c4 f4             	add    $0xfffffff4,%esp
    312d:	8d 45 80             	lea    0xffffff80(%ebp),%eax
    3130:	50                   	push   %eax
    3131:	e8 fc ff ff ff       	call   3132 <lanzadera+0x12>
    3136:	83 c4 10             	add    $0x10,%esp
    3139:	83 c4 fc             	add    $0xfffffffc,%esp
    313c:	6a 00                	push   $0x0
    313e:	8d 45 80             	lea    0xffffff80(%ebp),%eax
    3141:	50                   	push   %eax
    3142:	6a 02                	push   $0x2
    3144:	e8 fc ff ff ff       	call   3145 <lanzadera+0x25>
    3149:	83 c4 10             	add    $0x10,%esp
    314c:	83 c4 f4             	add    $0xfffffff4,%esp
    314f:	8b 45 0c             	mov    0xc(%ebp),%eax
    3152:	50                   	push   %eax
    3153:	8b 5d 08             	mov    0x8(%ebp),%ebx
    3156:	ff d3                	call   *%ebx
    3158:	83 c4 10             	add    $0x10,%esp
    315b:	8b 9d 68 ff ff ff    	mov    0xffffff68(%ebp),%ebx
    3161:	89 ec                	mov    %ebp,%esp
    3163:	5d                   	pop    %ebp
    3164:	c3                   	ret    
    3165:	8d 74 26 00          	lea    0x0(%esi),%esi
    3169:	8d bc 27 00 00 00 00 	lea    0x0(%edi),%edi

00003170 <fijar_contexto_ini>:
    3170:	55                   	push   %ebp
    3171:	89 e5                	mov    %esp,%ebp
    3173:	83 ec 18             	sub    $0x18,%esp
    3176:	8b 45 18             	mov    0x18(%ebp),%eax
    3179:	89 45 f4             	mov    %eax,0xfffffff4(%ebp)
    317c:	83 c4 f8             	add    $0xfffffff8,%esp
    317f:	68 dc 41 00 00       	push   $0x41dc
    3184:	8b 45 08             	mov    0x8(%ebp),%eax
    3187:	50                   	push   %eax
    3188:	e8 fc ff ff ff       	call   3189 <fijar_contexto_ini+0x19>
    318d:	83 c4 10             	add    $0x10,%esp
    3190:	89 c0                	mov    %eax,%eax
    3192:	89 c2                	mov    %eax,%edx
    3194:	89 55 fc             	mov    %edx,0xfffffffc(%ebp)
    3197:	85 d2                	test   %edx,%edx
    3199:	75 05                	jne    31a0 <fijar_contexto_ini+0x30>
    319b:	e9 b1 00 00 00       	jmp    3251 <fijar_contexto_ini+0xe1>
    31a0:	8b 45 14             	mov    0x14(%ebp),%eax
    31a3:	89 45 f8             	mov    %eax,0xfffffff8(%ebp)
    31a6:	83 c4 f4             	add    $0xfffffff4,%esp
    31a9:	8b 45 f4             	mov    0xfffffff4(%ebp),%eax
    31ac:	50                   	push   %eax
    31ad:	e8 fc ff ff ff       	call   31ae <fijar_contexto_ini+0x3e>
    31b2:	83 c4 10             	add    $0x10,%esp
    31b5:	8b 45 f4             	mov    0xfffffff4(%ebp),%eax
    31b8:	c7 40 04 00 00 00 00 	movl   $0x0,0x4(%eax)
    31bf:	8b 45 f4             	mov    0xfffffff4(%ebp),%eax
    31c2:	8b 55 0c             	mov    0xc(%ebp),%edx
    31c5:	89 50 08             	mov    %edx,0x8(%eax)
    31c8:	8b 45 f4             	mov    0xfffffff4(%ebp),%eax
    31cb:	8b 55 10             	mov    0x10(%ebp),%edx
    31ce:	89 50 10             	mov    %edx,0x10(%eax)
    31d1:	83 c4 f4             	add    $0xfffffff4,%esp
    31d4:	8b 45 f4             	mov    0xfffffff4(%ebp),%eax
    31d7:	83 c0 6c             	add    $0x6c,%eax
    31da:	50                   	push   %eax
    31db:	e8 fc ff ff ff       	call   31dc <fijar_contexto_ini+0x6c>
    31e0:	83 c4 10             	add    $0x10,%esp
    31e3:	83 c4 f8             	add    $0xfffffff8,%esp
    31e6:	6a 0e                	push   $0xe
    31e8:	8b 45 f4             	mov    0xfffffff4(%ebp),%eax
    31eb:	83 c0 6c             	add    $0x6c,%eax
    31ee:	50                   	push   %eax
    31ef:	e8 fc ff ff ff       	call   31f0 <fijar_contexto_ini+0x80>
    31f4:	83 c4 10             	add    $0x10,%esp
    31f7:	83 c4 f8             	add    $0xfffffff8,%esp
    31fa:	6a 1d                	push   $0x1d
    31fc:	8b 45 f4             	mov    0xfffffff4(%ebp),%eax
    31ff:	83 c0 6c             	add    $0x6c,%eax
    3202:	50                   	push   %eax
    3203:	e8 fc ff ff ff       	call   3204 <fijar_contexto_ini+0x94>
    3208:	83 c4 10             	add    $0x10,%esp
    320b:	83 c4 f8             	add    $0xfffffff8,%esp
    320e:	6a 0a                	push   $0xa
    3210:	8b 45 f4             	mov    0xfffffff4(%ebp),%eax
    3213:	83 c0 6c             	add    $0x6c,%eax
    3216:	50                   	push   %eax
    3217:	e8 fc ff ff ff       	call   3218 <fijar_contexto_ini+0xa8>
    321c:	83 c4 10             	add    $0x10,%esp
    321f:	83 c4 f8             	add    $0xfffffff8,%esp
    3222:	6a 0c                	push   $0xc
    3224:	8b 45 f4             	mov    0xfffffff4(%ebp),%eax
    3227:	83 c0 6c             	add    $0x6c,%eax
    322a:	50                   	push   %eax
    322b:	e8 fc ff ff ff       	call   322c <fijar_contexto_ini+0xbc>
    3230:	83 c4 10             	add    $0x10,%esp
    3233:	83 c4 f4             	add    $0xfffffff4,%esp
    3236:	8b 45 f8             	mov    0xfffffff8(%ebp),%eax
    3239:	50                   	push   %eax
    323a:	8b 45 fc             	mov    0xfffffffc(%ebp),%eax
    323d:	50                   	push   %eax
    323e:	6a 02                	push   $0x2
    3240:	68 20 31 00 00       	push   $0x3120
    3245:	8b 45 f4             	mov    0xfffffff4(%ebp),%eax
    3248:	50                   	push   %eax
    3249:	e8 fc ff ff ff       	call   324a <fijar_contexto_ini+0xda>
    324e:	83 c4 20             	add    $0x20,%esp
    3251:	89 ec                	mov    %ebp,%esp
    3253:	5d                   	pop    %ebp
    3254:	c3                   	ret    
    3255:	8d 74 26 00          	lea    0x0(%esi),%esi
    3259:	8d bc 27 00 00 00 00 	lea    0x0(%edi),%edi

00003260 <liberar_imagen>:
    3260:	55                   	push   %ebp
    3261:	89 e5                	mov    %esp,%ebp
    3263:	83 ec 48             	sub    $0x48,%esp
    3266:	83 c4 f4             	add    $0xfffffff4,%esp
    3269:	8b 45 08             	mov    0x8(%ebp),%eax
    326c:	50                   	push   %eax
    326d:	e8 fc ff ff ff       	call   326e <liberar_imagen+0xe>
    3272:	83 c4 10             	add    $0x10,%esp
    3275:	ff 0d 2c 54 00 00    	decl   0x542c
    327b:	83 3d 2c 54 00 00 00 	cmpl   $0x0,0x542c
    3282:	75 3c                	jne    32c0 <liberar_imagen+0x60>
    3284:	83 c4 f8             	add    $0xfffffff8,%esp
    3287:	8d 45 c4             	lea    0xffffffc4(%ebp),%eax
    328a:	50                   	push   %eax
    328b:	6a 00                	push   $0x0
    328d:	e8 fc ff ff ff       	call   328e <liberar_imagen+0x2e>
    3292:	83 c4 10             	add    $0x10,%esp
    3295:	80 4d d0 02          	orb    $0x2,0xffffffd0(%ebp)
    3299:	80 4d d0 08          	orb    $0x8,0xffffffd0(%ebp)
    329d:	83 c4 fc             	add    $0xfffffffc,%esp
    32a0:	8d 45 c4             	lea    0xffffffc4(%ebp),%eax
    32a3:	50                   	push   %eax
    32a4:	6a 02                	push   $0x2
    32a6:	6a 00                	push   $0x0
    32a8:	e8 fc ff ff ff       	call   32a9 <liberar_imagen+0x49>
    32ad:	83 c4 10             	add    $0x10,%esp
    32b0:	83 c4 f4             	add    $0xfffffff4,%esp
    32b3:	6a 00                	push   $0x0
    32b5:	e8 fc ff ff ff       	call   32b6 <liberar_imagen+0x56>
    32ba:	83 c4 10             	add    $0x10,%esp
    32bd:	8d 76 00             	lea    0x0(%esi),%esi
    32c0:	89 ec                	mov    %ebp,%esp
    32c2:	5d                   	pop    %ebp
    32c3:	c3                   	ret    
    32c4:	8d b6 00 00 00 00    	lea    0x0(%esi),%esi
    32ca:	8d bf 00 00 00 00    	lea    0x0(%edi),%edi

000032d0 <activar_int_SW>:
    32d0:	55                   	push   %ebp
    32d1:	89 e5                	mov    %esp,%ebp
    32d3:	83 ec 08             	sub    $0x8,%esp
    32d6:	83 c4 f8             	add    $0xfffffff8,%esp
    32d9:	6a 0c                	push   $0xc
    32db:	e8 fc ff ff ff       	call   32dc <activar_int_SW+0xc>
    32e0:	89 c0                	mov    %eax,%eax
    32e2:	50                   	push   %eax
    32e3:	e8 fc ff ff ff       	call   32e4 <activar_int_SW+0x14>
    32e8:	83 c4 10             	add    $0x10,%esp
    32eb:	89 ec                	mov    %ebp,%esp
    32ed:	5d                   	pop    %ebp
    32ee:	c3                   	ret    
    32ef:	90                   	nop    

000032f0 <fijar_nivel_int>:
    32f0:	55                   	push   %ebp
    32f1:	89 e5                	mov    %esp,%ebp
    32f3:	81 ec 88 01 00 00    	sub    $0x188,%esp
    32f9:	83 c4 fc             	add    $0xfffffffc,%esp
    32fc:	8d 85 80 fe ff ff    	lea    0xfffffe80(%ebp),%eax
    3302:	50                   	push   %eax
    3303:	6a 00                	push   $0x0
    3305:	6a 02                	push   $0x2
    3307:	e8 fc ff ff ff       	call   3308 <fijar_nivel_int+0x18>
    330c:	83 c4 10             	add    $0x10,%esp
    330f:	83 c4 f4             	add    $0xfffffff4,%esp
    3312:	8d 45 80             	lea    0xffffff80(%ebp),%eax
    3315:	50                   	push   %eax
    3316:	e8 fc ff ff ff       	call   3317 <fijar_nivel_int+0x27>
    331b:	83 c4 10             	add    $0x10,%esp
    331e:	83 c4 f8             	add    $0xfffffff8,%esp
    3321:	6a 1b                	push   $0x1b
    3323:	8d 85 80 fe ff ff    	lea    0xfffffe80(%ebp),%eax
    3329:	50                   	push   %eax
    332a:	e8 fc ff ff ff       	call   332b <fijar_nivel_int+0x3b>
    332f:	83 c4 10             	add    $0x10,%esp
    3332:	89 c0                	mov    %eax,%eax
    3334:	85 c0                	test   %eax,%eax
    3336:	74 11                	je     3349 <fijar_nivel_int+0x59>
    3338:	83 c4 f8             	add    $0xfffffff8,%esp
    333b:	6a 1b                	push   $0x1b
    333d:	8d 45 80             	lea    0xffffff80(%ebp),%eax
    3340:	50                   	push   %eax
    3341:	e8 fc ff ff ff       	call   3342 <fijar_nivel_int+0x52>
    3346:	83 c4 10             	add    $0x10,%esp
    3349:	83 c4 f8             	add    $0xfffffff8,%esp
    334c:	6a 18                	push   $0x18
    334e:	8d 85 80 fe ff ff    	lea    0xfffffe80(%ebp),%eax
    3354:	50                   	push   %eax
    3355:	e8 fc ff ff ff       	call   3356 <fijar_nivel_int+0x66>
    335a:	83 c4 10             	add    $0x10,%esp
    335d:	89 c0                	mov    %eax,%eax
    335f:	85 c0                	test   %eax,%eax
    3361:	74 11                	je     3374 <fijar_nivel_int+0x84>
    3363:	83 c4 f8             	add    $0xfffffff8,%esp
    3366:	6a 18                	push   $0x18
    3368:	8d 45 80             	lea    0xffffff80(%ebp),%eax
    336b:	50                   	push   %eax
    336c:	e8 fc ff ff ff       	call   336d <fijar_nivel_int+0x7d>
    3371:	83 c4 10             	add    $0x10,%esp
    3374:	83 c4 f8             	add    $0xfffffff8,%esp
    3377:	6a 19                	push   $0x19
    3379:	8d 85 80 fe ff ff    	lea    0xfffffe80(%ebp),%eax
    337f:	50                   	push   %eax
    3380:	e8 fc ff ff ff       	call   3381 <fijar_nivel_int+0x91>
    3385:	83 c4 10             	add    $0x10,%esp
    3388:	89 c0                	mov    %eax,%eax
    338a:	85 c0                	test   %eax,%eax
    338c:	74 11                	je     339f <fijar_nivel_int+0xaf>
    338e:	83 c4 f8             	add    $0xfffffff8,%esp
    3391:	6a 19                	push   $0x19
    3393:	8d 45 80             	lea    0xffffff80(%ebp),%eax
    3396:	50                   	push   %eax
    3397:	e8 fc ff ff ff       	call   3398 <fijar_nivel_int+0xa8>
    339c:	83 c4 10             	add    $0x10,%esp
    339f:	8b 45 08             	mov    0x8(%ebp),%eax
    33a2:	83 f8 02             	cmp    $0x2,%eax
    33a5:	74 2a                	je     33d1 <fijar_nivel_int+0xe1>
    33a7:	83 f8 02             	cmp    $0x2,%eax
    33aa:	7f 07                	jg     33b3 <fijar_nivel_int+0xc3>
    33ac:	83 f8 01             	cmp    $0x1,%eax
    33af:	74 31                	je     33e2 <fijar_nivel_int+0xf2>
    33b1:	eb 51                	jmp    3404 <fijar_nivel_int+0x114>
    33b3:	83 f8 03             	cmp    $0x3,%eax
    33b6:	74 08                	je     33c0 <fijar_nivel_int+0xd0>
    33b8:	eb 4a                	jmp    3404 <fijar_nivel_int+0x114>
    33ba:	8d b6 00 00 00 00    	lea    0x0(%esi),%esi
    33c0:	83 c4 f8             	add    $0xfffffff8,%esp
    33c3:	6a 0e                	push   $0xe
    33c5:	8d 45 80             	lea    0xffffff80(%ebp),%eax
    33c8:	50                   	push   %eax
    33c9:	e8 fc ff ff ff       	call   33ca <fijar_nivel_int+0xda>
    33ce:	83 c4 10             	add    $0x10,%esp
    33d1:	83 c4 f8             	add    $0xfffffff8,%esp
    33d4:	6a 1d                	push   $0x1d
    33d6:	8d 45 80             	lea    0xffffff80(%ebp),%eax
    33d9:	50                   	push   %eax
    33da:	e8 fc ff ff ff       	call   33db <fijar_nivel_int+0xeb>
    33df:	83 c4 10             	add    $0x10,%esp
    33e2:	83 c4 f8             	add    $0xfffffff8,%esp
    33e5:	6a 0a                	push   $0xa
    33e7:	8d 45 80             	lea    0xffffff80(%ebp),%eax
    33ea:	50                   	push   %eax
    33eb:	e8 fc ff ff ff       	call   33ec <fijar_nivel_int+0xfc>
    33f0:	83 c4 10             	add    $0x10,%esp
    33f3:	83 c4 f8             	add    $0xfffffff8,%esp
    33f6:	6a 0c                	push   $0xc
    33f8:	8d 45 80             	lea    0xffffff80(%ebp),%eax
    33fb:	50                   	push   %eax
    33fc:	e8 fc ff ff ff       	call   33fd <fijar_nivel_int+0x10d>
    3401:	83 c4 10             	add    $0x10,%esp
    3404:	83 c4 fc             	add    $0xfffffffc,%esp
    3407:	8d 85 00 ff ff ff    	lea    0xffffff00(%ebp),%eax
    340d:	50                   	push   %eax
    340e:	8d 45 80             	lea    0xffffff80(%ebp),%eax
    3411:	50                   	push   %eax
    3412:	6a 02                	push   $0x2
    3414:	e8 fc ff ff ff       	call   3415 <fijar_nivel_int+0x125>
    3419:	83 c4 10             	add    $0x10,%esp
    341c:	89 c0                	mov    %eax,%eax
    341e:	85 c0                	test   %eax,%eax
    3420:	74 10                	je     3432 <fijar_nivel_int+0x142>
    3422:	83 c4 f4             	add    $0xfffffff4,%esp
    3425:	68 e2 41 00 00       	push   $0x41e2
    342a:	e8 fc ff ff ff       	call   342b <fijar_nivel_int+0x13b>
    342f:	83 c4 10             	add    $0x10,%esp
    3432:	83 c4 f8             	add    $0xfffffff8,%esp
    3435:	6a 0e                	push   $0xe
    3437:	8d 85 00 ff ff ff    	lea    0xffffff00(%ebp),%eax
    343d:	50                   	push   %eax
    343e:	e8 fc ff ff ff       	call   343f <fijar_nivel_int+0x14f>
    3443:	83 c4 10             	add    $0x10,%esp
    3446:	89 c0                	mov    %eax,%eax
    3448:	85 c0                	test   %eax,%eax
    344a:	74 09                	je     3455 <fijar_nivel_int+0x165>
    344c:	b8 03 00 00 00       	mov    $0x3,%eax
    3451:	eb 2d                	jmp    3480 <fijar_nivel_int+0x190>
    3453:	eb 2b                	jmp    3480 <fijar_nivel_int+0x190>
    3455:	83 c4 f8             	add    $0xfffffff8,%esp
    3458:	6a 1d                	push   $0x1d
    345a:	8d 85 00 ff ff ff    	lea    0xffffff00(%ebp),%eax
    3460:	50                   	push   %eax
    3461:	e8 fc ff ff ff       	call   3462 <fijar_nivel_int+0x172>
    3466:	83 c4 10             	add    $0x10,%esp
    3469:	89 c0                	mov    %eax,%eax
    346b:	85 c0                	test   %eax,%eax
    346d:	74 09                	je     3478 <fijar_nivel_int+0x188>
    346f:	b8 02 00 00 00       	mov    $0x2,%eax
    3474:	eb 0a                	jmp    3480 <fijar_nivel_int+0x190>
    3476:	eb 08                	jmp    3480 <fijar_nivel_int+0x190>
    3478:	b8 01 00 00 00       	mov    $0x1,%eax
    347d:	eb 01                	jmp    3480 <fijar_nivel_int+0x190>
    347f:	90                   	nop    
    3480:	89 ec                	mov    %ebp,%esp
    3482:	5d                   	pop    %ebp
    3483:	c3                   	ret    
    3484:	8d b6 00 00 00 00    	lea    0x0(%esi),%esi
    348a:	8d bf 00 00 00 00    	lea    0x0(%edi),%edi

00003490 <viene_de_modo_usuario>:
    3490:	55                   	push   %ebp
    3491:	89 e5                	mov    %esp,%ebp
    3493:	81 ec 98 00 00 00    	sub    $0x98,%esp
    3499:	c7 85 7c ff ff ff 00 	movl   $0x0,0xffffff7c(%ebp)
    34a0:	00 00 00 
    34a3:	83 c4 fc             	add    $0xfffffffc,%esp
    34a6:	8d 45 80             	lea    0xffffff80(%ebp),%eax
    34a9:	50                   	push   %eax
    34aa:	6a 00                	push   $0x0
    34ac:	6a 02                	push   $0x2
    34ae:	e8 fc ff ff ff       	call   34af <viene_de_modo_usuario+0x1f>
    34b3:	83 c4 10             	add    $0x10,%esp
    34b6:	83 c4 f8             	add    $0xfffffff8,%esp
    34b9:	6a 1b                	push   $0x1b
    34bb:	8d 45 80             	lea    0xffffff80(%ebp),%eax
    34be:	50                   	push   %eax
    34bf:	e8 fc ff ff ff       	call   34c0 <viene_de_modo_usuario+0x30>
    34c4:	83 c4 10             	add    $0x10,%esp
    34c7:	89 c0                	mov    %eax,%eax
    34c9:	85 c0                	test   %eax,%eax
    34cb:	74 06                	je     34d3 <viene_de_modo_usuario+0x43>
    34cd:	ff 85 7c ff ff ff    	incl   0xffffff7c(%ebp)
    34d3:	83 c4 f8             	add    $0xfffffff8,%esp
    34d6:	6a 18                	push   $0x18
    34d8:	8d 45 80             	lea    0xffffff80(%ebp),%eax
    34db:	50                   	push   %eax
    34dc:	e8 fc ff ff ff       	call   34dd <viene_de_modo_usuario+0x4d>
    34e1:	83 c4 10             	add    $0x10,%esp
    34e4:	89 c0                	mov    %eax,%eax
    34e6:	85 c0                	test   %eax,%eax
    34e8:	74 06                	je     34f0 <viene_de_modo_usuario+0x60>
    34ea:	ff 85 7c ff ff ff    	incl   0xffffff7c(%ebp)
    34f0:	83 c4 f8             	add    $0xfffffff8,%esp
    34f3:	6a 19                	push   $0x19
    34f5:	8d 45 80             	lea    0xffffff80(%ebp),%eax
    34f8:	50                   	push   %eax
    34f9:	e8 fc ff ff ff       	call   34fa <viene_de_modo_usuario+0x6a>
    34fe:	83 c4 10             	add    $0x10,%esp
    3501:	89 c0                	mov    %eax,%eax
    3503:	85 c0                	test   %eax,%eax
    3505:	74 06                	je     350d <viene_de_modo_usuario+0x7d>
    3507:	ff 85 7c ff ff ff    	incl   0xffffff7c(%ebp)
    350d:	83 c4 f8             	add    $0xfffffff8,%esp
    3510:	6a 04                	push   $0x4
    3512:	8d 45 80             	lea    0xffffff80(%ebp),%eax
    3515:	50                   	push   %eax
    3516:	e8 fc ff ff ff       	call   3517 <viene_de_modo_usuario+0x87>
    351b:	83 c4 10             	add    $0x10,%esp
    351e:	89 c0                	mov    %eax,%eax
    3520:	85 c0                	test   %eax,%eax
    3522:	74 06                	je     352a <viene_de_modo_usuario+0x9a>
    3524:	ff 85 7c ff ff ff    	incl   0xffffff7c(%ebp)
    352a:	83 c4 f8             	add    $0xfffffff8,%esp
    352d:	6a 07                	push   $0x7
    352f:	8d 45 80             	lea    0xffffff80(%ebp),%eax
    3532:	50                   	push   %eax
    3533:	e8 fc ff ff ff       	call   3534 <viene_de_modo_usuario+0xa4>
    3538:	83 c4 10             	add    $0x10,%esp
    353b:	89 c0                	mov    %eax,%eax
    353d:	85 c0                	test   %eax,%eax
    353f:	74 06                	je     3547 <viene_de_modo_usuario+0xb7>
    3541:	ff 85 7c ff ff ff    	incl   0xffffff7c(%ebp)
    3547:	83 c4 f8             	add    $0xfffffff8,%esp
    354a:	6a 08                	push   $0x8
    354c:	8d 45 80             	lea    0xffffff80(%ebp),%eax
    354f:	50                   	push   %eax
    3550:	e8 fc ff ff ff       	call   3551 <viene_de_modo_usuario+0xc1>
    3555:	83 c4 10             	add    $0x10,%esp
    3558:	89 c0                	mov    %eax,%eax
    355a:	85 c0                	test   %eax,%eax
    355c:	74 06                	je     3564 <viene_de_modo_usuario+0xd4>
    355e:	ff 85 7c ff ff ff    	incl   0xffffff7c(%ebp)
    3564:	83 c4 f8             	add    $0xfffffff8,%esp
    3567:	6a 0b                	push   $0xb
    3569:	8d 45 80             	lea    0xffffff80(%ebp),%eax
    356c:	50                   	push   %eax
    356d:	e8 fc ff ff ff       	call   356e <viene_de_modo_usuario+0xde>
    3572:	83 c4 10             	add    $0x10,%esp
    3575:	89 c0                	mov    %eax,%eax
    3577:	85 c0                	test   %eax,%eax
    3579:	74 06                	je     3581 <viene_de_modo_usuario+0xf1>
    357b:	ff 85 7c ff ff ff    	incl   0xffffff7c(%ebp)
    3581:	83 bd 7c ff ff ff 01 	cmpl   $0x1,0xffffff7c(%ebp)
    3588:	0f 9e c0             	setle  %al
    358b:	31 d2                	xor    %edx,%edx
    358d:	88 c2                	mov    %al,%dl
    358f:	89 d0                	mov    %edx,%eax
    3591:	eb 00                	jmp    3593 <viene_de_modo_usuario+0x103>
    3593:	89 ec                	mov    %ebp,%esp
    3595:	5d                   	pop    %ebp
    3596:	c3                   	ret    
    3597:	89 f6                	mov    %esi,%esi
    3599:	8d bc 27 00 00 00 00 	lea    0x0(%edi),%edi

000035a0 <man_exc_preludio>:
    35a0:	55                   	push   %ebp
    35a1:	89 e5                	mov    %esp,%ebp
    35a3:	83 ec 14             	sub    $0x14,%esp
    35a6:	53                   	push   %ebx
    35a7:	83 7d 08 08          	cmpl   $0x8,0x8(%ebp)
    35ab:	75 0a                	jne    35b7 <man_exc_preludio+0x17>
    35ad:	8b 1d 60 54 00 00    	mov    0x5460,%ebx
    35b3:	ff d3                	call   *%ebx
    35b5:	eb 08                	jmp    35bf <man_exc_preludio+0x1f>
    35b7:	8b 1d 64 54 00 00    	mov    0x5464,%ebx
    35bd:	ff d3                	call   *%ebx
    35bf:	eb 00                	jmp    35c1 <man_exc_preludio+0x21>
    35c1:	8b 5d e8             	mov    0xffffffe8(%ebp),%ebx
    35c4:	89 ec                	mov    %ebp,%esp
    35c6:	5d                   	pop    %ebp
    35c7:	c3                   	ret    
    35c8:	90                   	nop    
    35c9:	8d b4 26 00 00 00 00 	lea    0x0(%esi),%esi

000035d0 <man_int_preludio>:
    35d0:	55                   	push   %ebp
    35d1:	89 e5                	mov    %esp,%ebp
    35d3:	81 ec a0 00 00 00    	sub    $0xa0,%esp
    35d9:	57                   	push   %edi
    35da:	53                   	push   %ebx
    35db:	c7 85 78 ff ff ff 00 	movl   $0x0,0xffffff78(%ebp)
    35e2:	00 00 00 
    35e5:	c7 85 7c ff ff ff 00 	movl   $0x0,0xffffff7c(%ebp)
    35ec:	00 00 00 
    35ef:	83 7d 08 1d          	cmpl   $0x1d,0x8(%ebp)
    35f3:	0f 85 9b 00 00 00    	jne    3694 <man_int_preludio+0xc4>
    35f9:	8d b4 26 00 00 00 00 	lea    0x0(%esi),%esi
    3600:	31 c0                	xor    %eax,%eax
    3602:	b9 20 00 00 00       	mov    $0x20,%ecx
    3607:	8d 55 80             	lea    0xffffff80(%ebp),%edx
    360a:	89 d7                	mov    %edx,%edi
    360c:	fc                   	cld    
    360d:	f3 ab                	repz stos %eax,%es:(%edi)
    360f:	89 c8                	mov    %ecx,%eax
    3611:	89 85 70 ff ff ff    	mov    %eax,0xffffff70(%ebp)
    3617:	89 f8                	mov    %edi,%eax
    3619:	89 85 6c ff ff ff    	mov    %eax,0xffffff6c(%ebp)
    361f:	eb 02                	jmp    3623 <man_int_preludio+0x53>
    3621:	eb dd                	jmp    3600 <man_int_preludio+0x30>
    3623:	31 c0                	xor    %eax,%eax
    3625:	0f ab 45 80          	bts    %eax,0xffffff80(%ebp)
    3629:	83 c4 f4             	add    $0xfffffff4,%esp
    362c:	6a 03                	push   $0x3
    362e:	e8 fc ff ff ff       	call   362f <man_int_preludio+0x5f>
    3633:	83 c4 10             	add    $0x10,%esp
    3636:	89 c0                	mov    %eax,%eax
    3638:	89 85 74 ff ff ff    	mov    %eax,0xffffff74(%ebp)
    363e:	83 c4 f4             	add    $0xfffffff4,%esp
    3641:	8d 85 78 ff ff ff    	lea    0xffffff78(%ebp),%eax
    3647:	50                   	push   %eax
    3648:	6a 00                	push   $0x0
    364a:	6a 00                	push   $0x0
    364c:	8d 45 80             	lea    0xffffff80(%ebp),%eax
    364f:	50                   	push   %eax
    3650:	6a 01                	push   $0x1
    3652:	e8 fc ff ff ff       	call   3653 <man_int_preludio+0x83>
    3657:	83 c4 20             	add    $0x20,%esp
    365a:	89 c0                	mov    %eax,%eax
    365c:	85 c0                	test   %eax,%eax
    365e:	7e 20                	jle    3680 <man_int_preludio+0xb0>
    3660:	83 c4 f4             	add    $0xfffffff4,%esp
    3663:	8b 85 74 ff ff ff    	mov    0xffffff74(%ebp),%eax
    3669:	50                   	push   %eax
    366a:	e8 fc ff ff ff       	call   366b <man_int_preludio+0x9b>
    366f:	83 c4 10             	add    $0x10,%esp
    3672:	8b 1d 6c 54 00 00    	mov    0x546c,%ebx
    3678:	ff d3                	call   *%ebx
    367a:	eb 16                	jmp    3692 <man_int_preludio+0xc2>
    367c:	8d 74 26 00          	lea    0x0(%esi),%esi
    3680:	83 c4 f4             	add    $0xfffffff4,%esp
    3683:	8b 85 74 ff ff ff    	mov    0xffffff74(%ebp),%eax
    3689:	50                   	push   %eax
    368a:	e8 fc ff ff ff       	call   368b <man_int_preludio+0xbb>
    368f:	83 c4 10             	add    $0x10,%esp
    3692:	eb 20                	jmp    36b4 <man_int_preludio+0xe4>
    3694:	83 7d 08 0e          	cmpl   $0xe,0x8(%ebp)
    3698:	75 0a                	jne    36a4 <man_int_preludio+0xd4>
    369a:	8b 1d 68 54 00 00    	mov    0x5468,%ebx
    36a0:	ff d3                	call   *%ebx
    36a2:	eb 10                	jmp    36b4 <man_int_preludio+0xe4>
    36a4:	83 c4 f4             	add    $0xfffffff4,%esp
    36a7:	68 ee 41 00 00       	push   $0x41ee
    36ac:	e8 fc ff ff ff       	call   36ad <man_int_preludio+0xdd>
    36b1:	83 c4 10             	add    $0x10,%esp
    36b4:	eb 00                	jmp    36b6 <man_int_preludio+0xe6>
    36b6:	8d a5 58 ff ff ff    	lea    0xffffff58(%ebp),%esp
    36bc:	5b                   	pop    %ebx
    36bd:	5f                   	pop    %edi
    36be:	89 ec                	mov    %ebp,%esp
    36c0:	5d                   	pop    %ebp
    36c1:	c3                   	ret    
    36c2:	8d b4 26 00 00 00 00 	lea    0x0(%esi),%esi
